
main:     file format elf64-x86-64


Disassembly of section .init:

0000000000001000 <_init>:
    1000:	f3 0f 1e fa          	endbr64 
    1004:	48 83 ec 08          	sub    $0x8,%rsp
    1008:	48 8b 05 d9 4f 00 00 	mov    0x4fd9(%rip),%rax        # 5fe8 <__gmon_start__@Base>
    100f:	48 85 c0             	test   %rax,%rax
    1012:	74 02                	je     1016 <_init+0x16>
    1014:	ff d0                	call   *%rax
    1016:	48 83 c4 08          	add    $0x8,%rsp
    101a:	c3                   	ret    

Disassembly of section .plt:

0000000000001020 <.plt>:
    1020:	ff 35 02 4f 00 00    	push   0x4f02(%rip)        # 5f28 <_GLOBAL_OFFSET_TABLE_+0x8>
    1026:	f2 ff 25 03 4f 00 00 	bnd jmp *0x4f03(%rip)        # 5f30 <_GLOBAL_OFFSET_TABLE_+0x10>
    102d:	0f 1f 00             	nopl   (%rax)
    1030:	f3 0f 1e fa          	endbr64 
    1034:	68 00 00 00 00       	push   $0x0
    1039:	f2 e9 e1 ff ff ff    	bnd jmp 1020 <_init+0x20>
    103f:	90                   	nop
    1040:	f3 0f 1e fa          	endbr64 
    1044:	68 01 00 00 00       	push   $0x1
    1049:	f2 e9 d1 ff ff ff    	bnd jmp 1020 <_init+0x20>
    104f:	90                   	nop
    1050:	f3 0f 1e fa          	endbr64 
    1054:	68 02 00 00 00       	push   $0x2
    1059:	f2 e9 c1 ff ff ff    	bnd jmp 1020 <_init+0x20>
    105f:	90                   	nop
    1060:	f3 0f 1e fa          	endbr64 
    1064:	68 03 00 00 00       	push   $0x3
    1069:	f2 e9 b1 ff ff ff    	bnd jmp 1020 <_init+0x20>
    106f:	90                   	nop
    1070:	f3 0f 1e fa          	endbr64 
    1074:	68 04 00 00 00       	push   $0x4
    1079:	f2 e9 a1 ff ff ff    	bnd jmp 1020 <_init+0x20>
    107f:	90                   	nop
    1080:	f3 0f 1e fa          	endbr64 
    1084:	68 05 00 00 00       	push   $0x5
    1089:	f2 e9 91 ff ff ff    	bnd jmp 1020 <_init+0x20>
    108f:	90                   	nop
    1090:	f3 0f 1e fa          	endbr64 
    1094:	68 06 00 00 00       	push   $0x6
    1099:	f2 e9 81 ff ff ff    	bnd jmp 1020 <_init+0x20>
    109f:	90                   	nop
    10a0:	f3 0f 1e fa          	endbr64 
    10a4:	68 07 00 00 00       	push   $0x7
    10a9:	f2 e9 71 ff ff ff    	bnd jmp 1020 <_init+0x20>
    10af:	90                   	nop
    10b0:	f3 0f 1e fa          	endbr64 
    10b4:	68 08 00 00 00       	push   $0x8
    10b9:	f2 e9 61 ff ff ff    	bnd jmp 1020 <_init+0x20>
    10bf:	90                   	nop
    10c0:	f3 0f 1e fa          	endbr64 
    10c4:	68 09 00 00 00       	push   $0x9
    10c9:	f2 e9 51 ff ff ff    	bnd jmp 1020 <_init+0x20>
    10cf:	90                   	nop
    10d0:	f3 0f 1e fa          	endbr64 
    10d4:	68 0a 00 00 00       	push   $0xa
    10d9:	f2 e9 41 ff ff ff    	bnd jmp 1020 <_init+0x20>
    10df:	90                   	nop
    10e0:	f3 0f 1e fa          	endbr64 
    10e4:	68 0b 00 00 00       	push   $0xb
    10e9:	f2 e9 31 ff ff ff    	bnd jmp 1020 <_init+0x20>
    10ef:	90                   	nop
    10f0:	f3 0f 1e fa          	endbr64 
    10f4:	68 0c 00 00 00       	push   $0xc
    10f9:	f2 e9 21 ff ff ff    	bnd jmp 1020 <_init+0x20>
    10ff:	90                   	nop
    1100:	f3 0f 1e fa          	endbr64 
    1104:	68 0d 00 00 00       	push   $0xd
    1109:	f2 e9 11 ff ff ff    	bnd jmp 1020 <_init+0x20>
    110f:	90                   	nop
    1110:	f3 0f 1e fa          	endbr64 
    1114:	68 0e 00 00 00       	push   $0xe
    1119:	f2 e9 01 ff ff ff    	bnd jmp 1020 <_init+0x20>
    111f:	90                   	nop
    1120:	f3 0f 1e fa          	endbr64 
    1124:	68 0f 00 00 00       	push   $0xf
    1129:	f2 e9 f1 fe ff ff    	bnd jmp 1020 <_init+0x20>
    112f:	90                   	nop
    1130:	f3 0f 1e fa          	endbr64 
    1134:	68 10 00 00 00       	push   $0x10
    1139:	f2 e9 e1 fe ff ff    	bnd jmp 1020 <_init+0x20>
    113f:	90                   	nop
    1140:	f3 0f 1e fa          	endbr64 
    1144:	68 11 00 00 00       	push   $0x11
    1149:	f2 e9 d1 fe ff ff    	bnd jmp 1020 <_init+0x20>
    114f:	90                   	nop

Disassembly of section .plt.got:

0000000000001150 <__cxa_finalize@plt>:
    1150:	f3 0f 1e fa          	endbr64 
    1154:	f2 ff 25 6d 4e 00 00 	bnd jmp *0x4e6d(%rip)        # 5fc8 <__cxa_finalize@GLIBC_2.2.5>
    115b:	0f 1f 44 00 00       	nopl   0x0(%rax,%rax,1)

Disassembly of section .plt.sec:

0000000000001160 <__printf_chk@plt>:
    1160:	f3 0f 1e fa          	endbr64 
    1164:	f2 ff 25 cd 4d 00 00 	bnd jmp *0x4dcd(%rip)        # 5f38 <__printf_chk@GLIBC_2.3.4>
    116b:	0f 1f 44 00 00       	nopl   0x0(%rax,%rax,1)

0000000000001170 <_ZNSt6chrono3_V212system_clock3nowEv@plt>:
    1170:	f3 0f 1e fa          	endbr64 
    1174:	f2 ff 25 c5 4d 00 00 	bnd jmp *0x4dc5(%rip)        # 5f40 <_ZNSt6chrono3_V212system_clock3nowEv@GLIBCXX_3.4.19>
    117b:	0f 1f 44 00 00       	nopl   0x0(%rax,%rax,1)

0000000000001180 <_ZNSt7__cxx1112basic_stringIcSt11char_traitsIcESaIcEE9_M_appendEPKcm@plt>:
    1180:	f3 0f 1e fa          	endbr64 
    1184:	f2 ff 25 bd 4d 00 00 	bnd jmp *0x4dbd(%rip)        # 5f48 <_ZNSt7__cxx1112basic_stringIcSt11char_traitsIcESaIcEE9_M_appendEPKcm@GLIBCXX_3.4.21>
    118b:	0f 1f 44 00 00       	nopl   0x0(%rax,%rax,1)

0000000000001190 <strlen@plt>:
    1190:	f3 0f 1e fa          	endbr64 
    1194:	f2 ff 25 b5 4d 00 00 	bnd jmp *0x4db5(%rip)        # 5f50 <strlen@GLIBC_2.2.5>
    119b:	0f 1f 44 00 00       	nopl   0x0(%rax,%rax,1)

00000000000011a0 <_ZSt20__throw_length_errorPKc@plt>:
    11a0:	f3 0f 1e fa          	endbr64 
    11a4:	f2 ff 25 ad 4d 00 00 	bnd jmp *0x4dad(%rip)        # 5f58 <_ZSt20__throw_length_errorPKc@GLIBCXX_3.4>
    11ab:	0f 1f 44 00 00       	nopl   0x0(%rax,%rax,1)

00000000000011b0 <_ZNSirsERi@plt>:
    11b0:	f3 0f 1e fa          	endbr64 
    11b4:	f2 ff 25 a5 4d 00 00 	bnd jmp *0x4da5(%rip)        # 5f60 <_ZNSirsERi@GLIBCXX_3.4>
    11bb:	0f 1f 44 00 00       	nopl   0x0(%rax,%rax,1)

00000000000011c0 <_ZSt19__throw_logic_errorPKc@plt>:
    11c0:	f3 0f 1e fa          	endbr64 
    11c4:	f2 ff 25 9d 4d 00 00 	bnd jmp *0x4d9d(%rip)        # 5f68 <_ZSt19__throw_logic_errorPKc@GLIBCXX_3.4>
    11cb:	0f 1f 44 00 00       	nopl   0x0(%rax,%rax,1)

00000000000011d0 <memcpy@plt>:
    11d0:	f3 0f 1e fa          	endbr64 
    11d4:	f2 ff 25 95 4d 00 00 	bnd jmp *0x4d95(%rip)        # 5f70 <memcpy@GLIBC_2.14>
    11db:	0f 1f 44 00 00       	nopl   0x0(%rax,%rax,1)

00000000000011e0 <__cxa_atexit@plt>:
    11e0:	f3 0f 1e fa          	endbr64 
    11e4:	f2 ff 25 8d 4d 00 00 	bnd jmp *0x4d8d(%rip)        # 5f78 <__cxa_atexit@GLIBC_2.2.5>
    11eb:	0f 1f 44 00 00       	nopl   0x0(%rax,%rax,1)

00000000000011f0 <_ZdlPv@plt>:
    11f0:	f3 0f 1e fa          	endbr64 
    11f4:	f2 ff 25 85 4d 00 00 	bnd jmp *0x4d85(%rip)        # 5f80 <_ZdlPv@GLIBCXX_3.4>
    11fb:	0f 1f 44 00 00       	nopl   0x0(%rax,%rax,1)

0000000000001200 <freopen@plt>:
    1200:	f3 0f 1e fa          	endbr64 
    1204:	f2 ff 25 7d 4d 00 00 	bnd jmp *0x4d7d(%rip)        # 5f88 <freopen@GLIBC_2.2.5>
    120b:	0f 1f 44 00 00       	nopl   0x0(%rax,%rax,1)

0000000000001210 <__stack_chk_fail@plt>:
    1210:	f3 0f 1e fa          	endbr64 
    1214:	f2 ff 25 75 4d 00 00 	bnd jmp *0x4d75(%rip)        # 5f90 <__stack_chk_fail@GLIBC_2.4>
    121b:	0f 1f 44 00 00       	nopl   0x0(%rax,%rax,1)

0000000000001220 <pthread_barrier_wait@plt>:
    1220:	f3 0f 1e fa          	endbr64 
    1224:	f2 ff 25 6d 4d 00 00 	bnd jmp *0x4d6d(%rip)        # 5f98 <pthread_barrier_wait@GLIBC_2.34>
    122b:	0f 1f 44 00 00       	nopl   0x0(%rax,%rax,1)

0000000000001230 <_ZNSt8ios_base4InitC1Ev@plt>:
    1230:	f3 0f 1e fa          	endbr64 
    1234:	f2 ff 25 65 4d 00 00 	bnd jmp *0x4d65(%rip)        # 5fa0 <_ZNSt8ios_base4InitC1Ev@GLIBCXX_3.4>
    123b:	0f 1f 44 00 00       	nopl   0x0(%rax,%rax,1)

0000000000001240 <pthread_barrier_init@plt>:
    1240:	f3 0f 1e fa          	endbr64 
    1244:	f2 ff 25 5d 4d 00 00 	bnd jmp *0x4d5d(%rip)        # 5fa8 <pthread_barrier_init@GLIBC_2.34>
    124b:	0f 1f 44 00 00       	nopl   0x0(%rax,%rax,1)

0000000000001250 <memmove@plt>:
    1250:	f3 0f 1e fa          	endbr64 
    1254:	f2 ff 25 55 4d 00 00 	bnd jmp *0x4d55(%rip)        # 5fb0 <memmove@GLIBC_2.2.5>
    125b:	0f 1f 44 00 00       	nopl   0x0(%rax,%rax,1)

0000000000001260 <_Unwind_Resume@plt>:
    1260:	f3 0f 1e fa          	endbr64 
    1264:	f2 ff 25 4d 4d 00 00 	bnd jmp *0x4d4d(%rip)        # 5fb8 <_Unwind_Resume@GCC_3.0>
    126b:	0f 1f 44 00 00       	nopl   0x0(%rax,%rax,1)

0000000000001270 <_ZNSt7__cxx1112basic_stringIcSt11char_traitsIcESaIcEE9_M_createERmm@plt>:
    1270:	f3 0f 1e fa          	endbr64 
    1274:	f2 ff 25 45 4d 00 00 	bnd jmp *0x4d45(%rip)        # 5fc0 <_ZNSt7__cxx1112basic_stringIcSt11char_traitsIcESaIcEE9_M_createERmm@GLIBCXX_3.4.21>
    127b:	0f 1f 44 00 00       	nopl   0x0(%rax,%rax,1)

Disassembly of section .text:

0000000000001280 <main.cold>:
    1280:	48 8b bd 60 ff ff ff 	mov    -0xa0(%rbp),%rdi
    1287:	48 39 df             	cmp    %rbx,%rdi
    128a:	0f 84 bc 00 00 00    	je     134c <main.cold+0xcc>
    1290:	c5 f8 77             	vzeroupper 
    1293:	e8 58 ff ff ff       	call   11f0 <_ZdlPv@plt>
    1298:	4c 89 e3             	mov    %r12,%rbx
    129b:	48 8b bd 20 ff ff ff 	mov    -0xe0(%rbp),%rdi
    12a2:	48 8d 85 30 ff ff ff 	lea    -0xd0(%rbp),%rax
    12a9:	48 39 c7             	cmp    %rax,%rdi
    12ac:	74 05                	je     12b3 <main.cold+0x33>
    12ae:	e8 3d ff ff ff       	call   11f0 <_ZdlPv@plt>
    12b3:	48 8b bd 00 ff ff ff 	mov    -0x100(%rbp),%rdi
    12ba:	48 8d 85 10 ff ff ff 	lea    -0xf0(%rbp),%rax
    12c1:	48 39 c7             	cmp    %rax,%rdi
    12c4:	74 05                	je     12cb <main.cold+0x4b>
    12c6:	e8 25 ff ff ff       	call   11f0 <_ZdlPv@plt>
    12cb:	49 89 dc             	mov    %rbx,%r12
    12ce:	48 8b bd e0 fe ff ff 	mov    -0x120(%rbp),%rdi
    12d5:	48 3b bd a8 fe ff ff 	cmp    -0x158(%rbp),%rdi
    12dc:	74 05                	je     12e3 <main.cold+0x63>
    12de:	e8 0d ff ff ff       	call   11f0 <_ZdlPv@plt>
    12e3:	4c 89 e7             	mov    %r12,%rdi
    12e6:	e8 75 ff ff ff       	call   1260 <_Unwind_Resume@plt>
    12eb:	48 8b bd 40 ff ff ff 	mov    -0xc0(%rbp),%rdi
    12f2:	48 8d 85 50 ff ff ff 	lea    -0xb0(%rbp),%rax
    12f9:	48 39 c7             	cmp    %rax,%rdi
    12fc:	74 56                	je     1354 <main.cold+0xd4>
    12fe:	c5 f8 77             	vzeroupper 
    1301:	e8 ea fe ff ff       	call   11f0 <_ZdlPv@plt>
    1306:	eb 93                	jmp    129b <main.cold+0x1b>
    1308:	48 8b 7d a0          	mov    -0x60(%rbp),%rdi
    130c:	4c 39 e7             	cmp    %r12,%rdi
    130f:	74 36                	je     1347 <main.cold+0xc7>
    1311:	c5 f8 77             	vzeroupper 
    1314:	e8 d7 fe ff ff       	call   11f0 <_ZdlPv@plt>
    1319:	4d 89 ec             	mov    %r13,%r12
    131c:	48 8b 7d 80          	mov    -0x80(%rbp),%rdi
    1320:	48 8d 45 90          	lea    -0x70(%rbp),%rax
    1324:	48 39 c7             	cmp    %rax,%rdi
    1327:	74 05                	je     132e <main.cold+0xae>
    1329:	e8 c2 fe ff ff       	call   11f0 <_ZdlPv@plt>
    132e:	48 8b bd 60 ff ff ff 	mov    -0xa0(%rbp),%rdi
    1335:	48 39 df             	cmp    %rbx,%rdi
    1338:	74 05                	je     133f <main.cold+0xbf>
    133a:	e8 b1 fe ff ff       	call   11f0 <_ZdlPv@plt>
    133f:	4c 89 e3             	mov    %r12,%rbx
    1342:	e9 54 ff ff ff       	jmp    129b <main.cold+0x1b>
    1347:	c5 f8 77             	vzeroupper 
    134a:	eb cd                	jmp    1319 <main.cold+0x99>
    134c:	c5 f8 77             	vzeroupper 
    134f:	e9 44 ff ff ff       	jmp    1298 <main.cold+0x18>
    1354:	c5 f8 77             	vzeroupper 
    1357:	e9 3f ff ff ff       	jmp    129b <main.cold+0x1b>
    135c:	0f 1f 40 00          	nopl   0x0(%rax)

0000000000001360 <main>:
    1360:	f3 0f 1e fa          	endbr64 
    1364:	55                   	push   %rbp
    1365:	31 d2                	xor    %edx,%edx
    1367:	48 89 e5             	mov    %rsp,%rbp
    136a:	41 57                	push   %r15
    136c:	41 56                	push   %r14
    136e:	48 8d bd e0 fe ff ff 	lea    -0x120(%rbp),%rdi
    1375:	48 8d b5 d8 fe ff ff 	lea    -0x128(%rbp),%rsi
    137c:	41 55                	push   %r13
    137e:	41 54                	push   %r12
    1380:	53                   	push   %rbx
    1381:	48 81 ec 38 01 00 00 	sub    $0x138,%rsp
    1388:	64 48 8b 04 25 28 00 	mov    %fs:0x28,%rax
    138f:	00 00 
    1391:	48 89 45 c8          	mov    %rax,-0x38(%rbp)
    1395:	31 c0                	xor    %eax,%eax
    1397:	48 8d 85 f0 fe ff ff 	lea    -0x110(%rbp),%rax
    139e:	48 c7 85 d8 fe ff ff 	movq   $0x12,-0x128(%rbp)
    13a5:	12 00 00 00 
    13a9:	48 89 85 a8 fe ff ff 	mov    %rax,-0x158(%rbp)
    13b0:	48 89 85 e0 fe ff ff 	mov    %rax,-0x120(%rbp)
    13b7:	e8 b4 fe ff ff       	call   1270 <_ZNSt7__cxx1112basic_stringIcSt11char_traitsIcESaIcEE9_M_createERmm@plt>
    13bc:	48 8b 95 d8 fe ff ff 	mov    -0x128(%rbp),%rdx
    13c3:	c5 f9 6f 05 75 28 00 	vmovdqa 0x2875(%rip),%xmm0        # 3c40 <_ZN4poly7f_n_t_tL4iab4E+0xbe0>
    13ca:	00 
    13cb:	48 8d bd 00 ff ff ff 	lea    -0x100(%rbp),%rdi
    13d2:	48 89 85 e0 fe ff ff 	mov    %rax,-0x120(%rbp)
    13d9:	4c 8b 25 f0 4b 00 00 	mov    0x4bf0(%rip),%r12        # 5fd0 <vsnprintf@GLIBC_2.2.5>
    13e0:	48 8d 0d 27 1c 00 00 	lea    0x1c27(%rip),%rcx        # 300e <_IO_stdin_used+0xe>
    13e7:	48 89 95 f0 fe ff ff 	mov    %rdx,-0x110(%rbp)
    13ee:	ba 54 54 00 00       	mov    $0x5454,%edx
    13f3:	c5 f8 11 00          	vmovups %xmm0,(%rax)
    13f7:	4c 89 e6             	mov    %r12,%rsi
    13fa:	66 89 50 10          	mov    %dx,0x10(%rax)
    13fe:	48 8b 85 d8 fe ff ff 	mov    -0x128(%rbp),%rax
    1405:	48 8b 95 e0 fe ff ff 	mov    -0x120(%rbp),%rdx
    140c:	48 89 85 e8 fe ff ff 	mov    %rax,-0x118(%rbp)
    1413:	c6 04 02 00          	movb   $0x0,(%rdx,%rax,1)
    1417:	44 8b 05 22 4c 00 00 	mov    0x4c22(%rip),%r8d        # 6040 <nn>
    141e:	ba 10 00 00 00       	mov    $0x10,%edx
    1423:	31 c0                	xor    %eax,%eax
    1425:	e8 76 11 00 00       	call   25a0 <_ZN9__gnu_cxx12__to_xstringINSt7__cxx1112basic_stringIcSt11char_traitsIcESaIcEEEcEET_PFiPT0_mPKS8_P13__va_list_tagEmSB_z>
    142a:	44 8b 05 ef 4b 00 00 	mov    0x4bef(%rip),%r8d        # 6020 <qq>
    1431:	ba 10 00 00 00       	mov    $0x10,%edx
    1436:	4c 89 e6             	mov    %r12,%rsi
    1439:	31 c0                	xor    %eax,%eax
    143b:	48 8d bd 20 ff ff ff 	lea    -0xe0(%rbp),%rdi
    1442:	48 8d 0d c5 1b 00 00 	lea    0x1bc5(%rip),%rcx        # 300e <_IO_stdin_used+0xe>
    1449:	e8 52 11 00 00       	call   25a0 <_ZN9__gnu_cxx12__to_xstringINSt7__cxx1112basic_stringIcSt11char_traitsIcESaIcEEEcEET_PFiPT0_mPKS8_P13__va_list_tagEmSB_z>
    144e:	48 8b b5 e0 fe ff ff 	mov    -0x120(%rbp),%rsi
    1455:	48 8b 95 e8 fe ff ff 	mov    -0x118(%rbp),%rdx
    145c:	4c 8d a5 60 ff ff ff 	lea    -0xa0(%rbp),%r12
    1463:	48 8d 9d 70 ff ff ff 	lea    -0x90(%rbp),%rbx
    146a:	4c 89 e7             	mov    %r12,%rdi
    146d:	48 89 9d 60 ff ff ff 	mov    %rbx,-0xa0(%rbp)
    1474:	48 01 f2             	add    %rsi,%rdx
    1477:	e8 54 10 00 00       	call   24d0 <_ZNSt7__cxx1112basic_stringIcSt11char_traitsIcESaIcEE12_M_constructIPcEEvT_S7_St20forward_iterator_tag>
    147c:	48 8b 95 08 ff ff ff 	mov    -0xf8(%rbp),%rdx
    1483:	48 8b b5 00 ff ff ff 	mov    -0x100(%rbp),%rsi
    148a:	4c 89 e7             	mov    %r12,%rdi
    148d:	e8 ee fc ff ff       	call   1180 <_ZNSt7__cxx1112basic_stringIcSt11char_traitsIcESaIcEE9_M_appendEPKcm@plt>
    1492:	4c 8d 6d 80          	lea    -0x80(%rbp),%r13
    1496:	48 8d 15 74 1b 00 00 	lea    0x1b74(%rip),%rdx        # 3011 <_IO_stdin_used+0x11>
    149d:	4c 89 e6             	mov    %r12,%rsi
    14a0:	4c 89 ef             	mov    %r13,%rdi
    14a3:	e8 b8 0e 00 00       	call   2360 <_ZStplIcSt11char_traitsIcESaIcEENSt7__cxx1112basic_stringIT_T0_T1_EEOS8_PKS5_>
    14a8:	48 8b 95 28 ff ff ff 	mov    -0xd8(%rbp),%rdx
    14af:	48 8b b5 20 ff ff ff 	mov    -0xe0(%rbp),%rsi
    14b6:	4c 89 ef             	mov    %r13,%rdi
    14b9:	e8 c2 fc ff ff       	call   1180 <_ZNSt7__cxx1112basic_stringIcSt11char_traitsIcESaIcEE9_M_appendEPKcm@plt>
    14be:	4c 8d 65 b0          	lea    -0x50(%rbp),%r12
    14c2:	48 8d 50 10          	lea    0x10(%rax),%rdx
    14c6:	4c 89 65 a0          	mov    %r12,-0x60(%rbp)
    14ca:	48 8b 08             	mov    (%rax),%rcx
    14cd:	48 39 d1             	cmp    %rdx,%rcx
    14d0:	0f 84 5b 02 00 00    	je     1731 <main+0x3d1>
    14d6:	48 89 4d a0          	mov    %rcx,-0x60(%rbp)
    14da:	48 8b 48 10          	mov    0x10(%rax),%rcx
    14de:	48 89 4d b0          	mov    %rcx,-0x50(%rbp)
    14e2:	48 8b 48 08          	mov    0x8(%rax),%rcx
    14e6:	c6 40 10 00          	movb   $0x0,0x10(%rax)
    14ea:	48 8d bd 40 ff ff ff 	lea    -0xc0(%rbp),%rdi
    14f1:	48 8d 75 a0          	lea    -0x60(%rbp),%rsi
    14f5:	48 89 4d a8          	mov    %rcx,-0x58(%rbp)
    14f9:	48 89 10             	mov    %rdx,(%rax)
    14fc:	48 8d 15 10 1b 00 00 	lea    0x1b10(%rip),%rdx        # 3013 <_IO_stdin_used+0x13>
    1503:	48 c7 40 08 00 00 00 	movq   $0x0,0x8(%rax)
    150a:	00 
    150b:	e8 50 0e 00 00       	call   2360 <_ZStplIcSt11char_traitsIcESaIcEENSt7__cxx1112basic_stringIT_T0_T1_EEOS8_PKS5_>
    1510:	48 8b 7d a0          	mov    -0x60(%rbp),%rdi
    1514:	4c 39 e7             	cmp    %r12,%rdi
    1517:	74 05                	je     151e <main+0x1be>
    1519:	e8 d2 fc ff ff       	call   11f0 <_ZdlPv@plt>
    151e:	48 8b 7d 80          	mov    -0x80(%rbp),%rdi
    1522:	48 8d 45 90          	lea    -0x70(%rbp),%rax
    1526:	48 39 c7             	cmp    %rax,%rdi
    1529:	74 05                	je     1530 <main+0x1d0>
    152b:	e8 c0 fc ff ff       	call   11f0 <_ZdlPv@plt>
    1530:	48 8b bd 60 ff ff ff 	mov    -0xa0(%rbp),%rdi
    1537:	48 39 df             	cmp    %rbx,%rdi
    153a:	74 05                	je     1541 <main+0x1e1>
    153c:	e8 af fc ff ff       	call   11f0 <_ZdlPv@plt>
    1541:	48 8b 9d 48 ff ff ff 	mov    -0xb8(%rbp),%rbx
    1548:	48 89 e1             	mov    %rsp,%rcx
    154b:	48 8d 43 10          	lea    0x10(%rbx),%rax
    154f:	48 89 c2             	mov    %rax,%rdx
    1552:	48 25 00 f0 ff ff    	and    $0xfffffffffffff000,%rax
    1558:	48 29 c1             	sub    %rax,%rcx
    155b:	48 83 e2 f0          	and    $0xfffffffffffffff0,%rdx
    155f:	48 89 c8             	mov    %rcx,%rax
    1562:	48 39 c4             	cmp    %rax,%rsp
    1565:	74 15                	je     157c <main+0x21c>
    1567:	48 81 ec 00 10 00 00 	sub    $0x1000,%rsp
    156e:	48 83 8c 24 f8 0f 00 	orq    $0x0,0xff8(%rsp)
    1575:	00 00 
    1577:	48 39 c4             	cmp    %rax,%rsp
    157a:	75 eb                	jne    1567 <main+0x207>
    157c:	81 e2 ff 0f 00 00    	and    $0xfff,%edx
    1582:	48 29 d4             	sub    %rdx,%rsp
    1585:	48 85 d2             	test   %rdx,%rdx
    1588:	0f 85 b2 01 00 00    	jne    1740 <main+0x3e0>
    158e:	49 89 e4             	mov    %rsp,%r12
    1591:	48 85 db             	test   %rbx,%rbx
    1594:	74 12                	je     15a8 <main+0x248>
    1596:	48 8b b5 40 ff ff ff 	mov    -0xc0(%rbp),%rsi
    159d:	48 89 da             	mov    %rbx,%rdx
    15a0:	48 89 e7             	mov    %rsp,%rdi
    15a3:	e8 a8 fc ff ff       	call   1250 <memmove@plt>
    15a8:	41 c6 04 1c 00       	movb   $0x0,(%r12,%rbx,1)
    15ad:	48 8b 15 cc 4a 00 00 	mov    0x4acc(%rip),%rdx        # 6080 <stdin@GLIBC_2.2.5>
    15b4:	48 8d 35 5c 1a 00 00 	lea    0x1a5c(%rip),%rsi        # 3017 <_IO_stdin_used+0x17>
    15bb:	4c 89 e7             	mov    %r12,%rdi
    15be:	e8 3d fc ff ff       	call   1200 <freopen@plt>
    15c3:	8b 0d 77 4a 00 00    	mov    0x4a77(%rip),%ecx        # 6040 <nn>
    15c9:	b8 20 00 00 00       	mov    $0x20,%eax
    15ce:	8d 54 09 fe          	lea    -0x2(%rcx,%rcx,1),%edx
    15d2:	89 8d bc fe ff ff    	mov    %ecx,-0x144(%rbp)
    15d8:	f3 0f bd d2          	lzcnt  %edx,%edx
    15dc:	29 d0                	sub    %edx,%eax
    15de:	ba 01 00 00 00       	mov    $0x1,%edx
    15e3:	c4 e2 79 f7 f2       	shlx   %eax,%edx,%esi
    15e8:	48 8b 05 81 4a 00 00 	mov    0x4a81(%rip),%rax        # 6070 <_ZN4poly9poly_base10mem_helper3nowE>
    15ef:	4c 63 e6             	movslq %esi,%r12
    15f2:	89 b5 b8 fe ff ff    	mov    %esi,-0x148(%rbp)
    15f8:	49 c1 e4 02          	shl    $0x2,%r12
    15fc:	48 83 c0 1f          	add    $0x1f,%rax
    1600:	48 83 e0 e0          	and    $0xffffffffffffffe0,%rax
    1604:	4e 8d 2c 20          	lea    (%rax,%r12,1),%r13
    1608:	48 89 85 c0 fe ff ff 	mov    %rax,-0x140(%rbp)
    160f:	49 8d 45 1f          	lea    0x1f(%r13),%rax
    1613:	48 83 e0 e0          	and    $0xffffffffffffffe0,%rax
    1617:	49 01 c4             	add    %rax,%r12
    161a:	48 89 85 c8 fe ff ff 	mov    %rax,-0x138(%rbp)
    1621:	4c 89 25 48 4a 00 00 	mov    %r12,0x4a48(%rip)        # 6070 <_ZN4poly9poly_base10mem_helper3nowE>
    1628:	85 c9                	test   %ecx,%ecx
    162a:	7e 70                	jle    169c <main+0x33c>
    162c:	44 8d 71 ff          	lea    -0x1(%rcx),%r14d
    1630:	48 8d 1d a9 b5 18 00 	lea    0x18b5a9(%rip),%rbx        # 18cbe0 <f>
    1637:	4a 8d 04 b5 00 00 00 	lea    0x0(,%r14,4),%rax
    163e:	00 
    163f:	4c 8d 73 04          	lea    0x4(%rbx),%r14
    1643:	48 89 85 b0 fe ff ff 	mov    %rax,-0x150(%rbp)
    164a:	49 01 c6             	add    %rax,%r14
    164d:	4c 8d 3d 4c 4a 00 00 	lea    0x4a4c(%rip),%r15        # 60a0 <_ZSt3cin@GLIBCXX_3.4>
    1654:	0f 1f 40 00          	nopl   0x0(%rax)
    1658:	48 89 de             	mov    %rbx,%rsi
    165b:	4c 89 ff             	mov    %r15,%rdi
    165e:	e8 4d fb ff ff       	call   11b0 <_ZNSirsERi@plt>
    1663:	48 83 c3 04          	add    $0x4,%rbx
    1667:	49 39 de             	cmp    %rbx,%r14
    166a:	75 ec                	jne    1658 <main+0x2f8>
    166c:	48 8d 1d 4d 4b 00 00 	lea    0x4b4d(%rip),%rbx        # 61c0 <g>
    1673:	4c 8d 3d 26 4a 00 00 	lea    0x4a26(%rip),%r15        # 60a0 <_ZSt3cin@GLIBCXX_3.4>
    167a:	4c 8d 73 04          	lea    0x4(%rbx),%r14
    167e:	4c 03 b5 b0 fe ff ff 	add    -0x150(%rbp),%r14
    1685:	0f 1f 00             	nopl   (%rax)
    1688:	48 89 de             	mov    %rbx,%rsi
    168b:	4c 89 ff             	mov    %r15,%rdi
    168e:	e8 1d fb ff ff       	call   11b0 <_ZNSirsERi@plt>
    1693:	48 83 c3 04          	add    $0x4,%rbx
    1697:	49 39 de             	cmp    %rbx,%r14
    169a:	75 ec                	jne    1688 <main+0x328>
    169c:	48 8b 9d c0 fe ff ff 	mov    -0x140(%rbp),%rbx
    16a3:	ba 14 6a 18 00       	mov    $0x186a14,%edx
    16a8:	48 8d 35 31 b5 18 00 	lea    0x18b531(%rip),%rsi        # 18cbe0 <f>
    16af:	48 89 df             	mov    %rbx,%rdi
    16b2:	e8 19 fb ff ff       	call   11d0 <memcpy@plt>
    16b7:	48 8b bd c8 fe ff ff 	mov    -0x138(%rbp),%rdi
    16be:	ba 14 6a 18 00       	mov    $0x186a14,%edx
    16c3:	48 8d 35 f6 4a 00 00 	lea    0x4af6(%rip),%rsi        # 61c0 <g>
    16ca:	e8 01 fb ff ff       	call   11d0 <memcpy@plt>
    16cf:	e8 9c fa ff ff       	call   1170 <_ZNSt6chrono3_V212system_clock3nowEv@plt>
    16d4:	48 63 85 bc fe ff ff 	movslq -0x144(%rbp),%rax
    16db:	48 c1 e0 02          	shl    $0x2,%rax
    16df:	48 8d 14 03          	lea    (%rbx,%rax,1),%rdx
    16e3:	4c 39 ea             	cmp    %r13,%rdx
    16e6:	74 17                	je     16ff <main+0x39f>
    16e8:	0f 1f 84 00 00 00 00 	nopl   0x0(%rax,%rax,1)
    16ef:	00 
    16f0:	c7 02 00 00 00 00    	movl   $0x0,(%rdx)
    16f6:	48 83 c2 04          	add    $0x4,%rdx
    16fa:	49 39 d5             	cmp    %rdx,%r13
    16fd:	75 f1                	jne    16f0 <main+0x390>
    16ff:	48 03 85 c8 fe ff ff 	add    -0x138(%rbp),%rax
    1706:	4c 39 e0             	cmp    %r12,%rax
    1709:	74 14                	je     171f <main+0x3bf>
    170b:	0f 1f 44 00 00       	nopl   0x0(%rax,%rax,1)
    1710:	c7 00 00 00 00 00    	movl   $0x0,(%rax)
    1716:	48 83 c0 04          	add    $0x4,%rax
    171a:	49 39 c4             	cmp    %rax,%r12
    171d:	75 f1                	jne    1710 <main+0x3b0>
    171f:	8b b5 b8 fe ff ff    	mov    -0x148(%rbp),%esi
    1725:	48 8b bd c0 fe ff ff 	mov    -0x140(%rbp),%rdi
    172c:	e8 cf 0c 00 00       	call   2400 <_ZN4poly7f_n_t_t11dif_base4x8ILb0ELi1EEEvPji>
    1731:	c5 fa 6f 48 10       	vmovdqu 0x10(%rax),%xmm1
    1736:	c5 f8 29 4d b0       	vmovaps %xmm1,-0x50(%rbp)
    173b:	e9 a2 fd ff ff       	jmp    14e2 <main+0x182>
    1740:	48 83 4c 14 f8 00    	orq    $0x0,-0x8(%rsp,%rdx,1)
    1746:	e9 43 fe ff ff       	jmp    158e <main+0x22e>
    174b:	f3 0f 1e fa          	endbr64 
    174f:	49 89 c4             	mov    %rax,%r12
    1752:	c5 f8 77             	vzeroupper 
    1755:	e9 74 fb ff ff       	jmp    12ce <main.cold+0x4e>
    175a:	f3 0f 1e fa          	endbr64 
    175e:	48 89 c3             	mov    %rax,%rbx
    1761:	e9 85 fb ff ff       	jmp    12eb <main.cold+0x6b>
    1766:	f3 0f 1e fa          	endbr64 
    176a:	49 89 c4             	mov    %rax,%r12
    176d:	c5 f8 77             	vzeroupper 
    1770:	e9 b9 fb ff ff       	jmp    132e <main.cold+0xae>
    1775:	f3 0f 1e fa          	endbr64 
    1779:	49 89 c4             	mov    %rax,%r12
    177c:	e9 ff fa ff ff       	jmp    1280 <main.cold>
    1781:	f3 0f 1e fa          	endbr64 
    1785:	49 89 c5             	mov    %rax,%r13
    1788:	e9 7b fb ff ff       	jmp    1308 <main.cold+0x88>
    178d:	f3 0f 1e fa          	endbr64 
    1791:	49 89 c4             	mov    %rax,%r12
    1794:	c5 f8 77             	vzeroupper 
    1797:	e9 80 fb ff ff       	jmp    131c <main.cold+0x9c>
    179c:	f3 0f 1e fa          	endbr64 
    17a0:	48 89 c3             	mov    %rax,%rbx
    17a3:	c5 f8 77             	vzeroupper 
    17a6:	e9 f0 fa ff ff       	jmp    129b <main.cold+0x1b>
    17ab:	f3 0f 1e fa          	endbr64 
    17af:	48 89 c3             	mov    %rax,%rbx
    17b2:	c5 f8 77             	vzeroupper 
    17b5:	e9 f9 fa ff ff       	jmp    12b3 <main.cold+0x33>
    17ba:	66 0f 1f 44 00 00    	nopw   0x0(%rax,%rax,1)

00000000000017c0 <_GLOBAL__sub_I__ZN4poly9poly_base10mem_helper4_memE>:
    17c0:	f3 0f 1e fa          	endbr64 
    17c4:	48 83 ec 08          	sub    $0x8,%rsp
    17c8:	48 8d 3d 51 1e 31 04 	lea    0x4311e51(%rip),%rdi        # 4313620 <_ZStL8__ioinit>
    17cf:	e8 5c fa ff ff       	call   1230 <_ZNSt8ios_base4InitC1Ev@plt>
    17d4:	48 8b 3d 1d 48 00 00 	mov    0x481d(%rip),%rdi        # 5ff8 <_ZNSt8ios_base4InitD1Ev@GLIBCXX_3.4>
    17db:	48 83 c4 08          	add    $0x8,%rsp
    17df:	48 8d 15 22 48 00 00 	lea    0x4822(%rip),%rdx        # 6008 <__dso_handle>
    17e6:	48 8d 35 33 1e 31 04 	lea    0x4311e33(%rip),%rsi        # 4313620 <_ZStL8__ioinit>
    17ed:	e9 ee f9 ff ff       	jmp    11e0 <__cxa_atexit@plt>
    17f2:	66 2e 0f 1f 84 00 00 	cs nopw 0x0(%rax,%rax,1)
    17f9:	00 00 00 
    17fc:	0f 1f 40 00          	nopl   0x0(%rax)

0000000000001800 <_start>:
    1800:	f3 0f 1e fa          	endbr64 
    1804:	31 ed                	xor    %ebp,%ebp
    1806:	49 89 d1             	mov    %rdx,%r9
    1809:	5e                   	pop    %rsi
    180a:	48 89 e2             	mov    %rsp,%rdx
    180d:	48 83 e4 f0          	and    $0xfffffffffffffff0,%rsp
    1811:	50                   	push   %rax
    1812:	54                   	push   %rsp
    1813:	45 31 c0             	xor    %r8d,%r8d
    1816:	31 c9                	xor    %ecx,%ecx
    1818:	48 8d 3d 41 fb ff ff 	lea    -0x4bf(%rip),%rdi        # 1360 <main>
    181f:	ff 15 b3 47 00 00    	call   *0x47b3(%rip)        # 5fd8 <__libc_start_main@GLIBC_2.34>
    1825:	f4                   	hlt    
    1826:	66 2e 0f 1f 84 00 00 	cs nopw 0x0(%rax,%rax,1)
    182d:	00 00 00 

0000000000001830 <deregister_tm_clones>:
    1830:	48 8d 3d 49 48 00 00 	lea    0x4849(%rip),%rdi        # 6080 <stdin@GLIBC_2.2.5>
    1837:	48 8d 05 42 48 00 00 	lea    0x4842(%rip),%rax        # 6080 <stdin@GLIBC_2.2.5>
    183e:	48 39 f8             	cmp    %rdi,%rax
    1841:	74 15                	je     1858 <deregister_tm_clones+0x28>
    1843:	48 8b 05 96 47 00 00 	mov    0x4796(%rip),%rax        # 5fe0 <_ITM_deregisterTMCloneTable@Base>
    184a:	48 85 c0             	test   %rax,%rax
    184d:	74 09                	je     1858 <deregister_tm_clones+0x28>
    184f:	ff e0                	jmp    *%rax
    1851:	0f 1f 80 00 00 00 00 	nopl   0x0(%rax)
    1858:	c3                   	ret    
    1859:	0f 1f 80 00 00 00 00 	nopl   0x0(%rax)

0000000000001860 <register_tm_clones>:
    1860:	48 8d 3d 19 48 00 00 	lea    0x4819(%rip),%rdi        # 6080 <stdin@GLIBC_2.2.5>
    1867:	48 8d 35 12 48 00 00 	lea    0x4812(%rip),%rsi        # 6080 <stdin@GLIBC_2.2.5>
    186e:	48 29 fe             	sub    %rdi,%rsi
    1871:	48 89 f0             	mov    %rsi,%rax
    1874:	48 c1 ee 3f          	shr    $0x3f,%rsi
    1878:	48 c1 f8 03          	sar    $0x3,%rax
    187c:	48 01 c6             	add    %rax,%rsi
    187f:	48 d1 fe             	sar    %rsi
    1882:	74 14                	je     1898 <register_tm_clones+0x38>
    1884:	48 8b 05 65 47 00 00 	mov    0x4765(%rip),%rax        # 5ff0 <_ITM_registerTMCloneTable@Base>
    188b:	48 85 c0             	test   %rax,%rax
    188e:	74 08                	je     1898 <register_tm_clones+0x38>
    1890:	ff e0                	jmp    *%rax
    1892:	66 0f 1f 44 00 00    	nopw   0x0(%rax,%rax,1)
    1898:	c3                   	ret    
    1899:	0f 1f 80 00 00 00 00 	nopl   0x0(%rax)

00000000000018a0 <__do_global_dtors_aux>:
    18a0:	f3 0f 1e fa          	endbr64 
    18a4:	80 3d 0d 49 00 00 00 	cmpb   $0x0,0x490d(%rip)        # 61b8 <completed.8099>
    18ab:	75 2b                	jne    18d8 <__do_global_dtors_aux+0x38>
    18ad:	55                   	push   %rbp
    18ae:	48 83 3d 12 47 00 00 	cmpq   $0x0,0x4712(%rip)        # 5fc8 <__cxa_finalize@GLIBC_2.2.5>
    18b5:	00 
    18b6:	48 89 e5             	mov    %rsp,%rbp
    18b9:	74 0c                	je     18c7 <__do_global_dtors_aux+0x27>
    18bb:	48 8b 3d 46 47 00 00 	mov    0x4746(%rip),%rdi        # 6008 <__dso_handle>
    18c2:	e8 89 f8 ff ff       	call   1150 <__cxa_finalize@plt>
    18c7:	e8 64 ff ff ff       	call   1830 <deregister_tm_clones>
    18cc:	c6 05 e5 48 00 00 01 	movb   $0x1,0x48e5(%rip)        # 61b8 <completed.8099>
    18d3:	5d                   	pop    %rbp
    18d4:	c3                   	ret    
    18d5:	0f 1f 00             	nopl   (%rax)
    18d8:	c3                   	ret    
    18d9:	0f 1f 80 00 00 00 00 	nopl   0x0(%rax)

00000000000018e0 <frame_dummy>:
    18e0:	f3 0f 1e fa          	endbr64 
    18e4:	e9 77 ff ff ff       	jmp    1860 <register_tm_clones>
    18e9:	0f 1f 80 00 00 00 00 	nopl   0x0(%rax)

00000000000018f0 <_ZN4poly9poly_base10mem_helper4alocEm>:
    18f0:	f3 0f 1e fa          	endbr64 
    18f4:	48 8b 05 75 47 00 00 	mov    0x4775(%rip),%rax        # 6070 <_ZN4poly9poly_base10mem_helper3nowE>
    18fb:	48 01 c7             	add    %rax,%rdi
    18fe:	48 89 3d 6b 47 00 00 	mov    %rdi,0x476b(%rip)        # 6070 <_ZN4poly9poly_base10mem_helper3nowE>
    1905:	c3                   	ret    
    1906:	66 2e 0f 1f 84 00 00 	cs nopw 0x0(%rax,%rax,1)
    190d:	00 00 00 

0000000000001910 <_ZN4poly9poly_base10mem_helper5alocPEi>:
    1910:	f3 0f 1e fa          	endbr64 
    1914:	48 8b 05 55 47 00 00 	mov    0x4755(%rip),%rax        # 6070 <_ZN4poly9poly_base10mem_helper3nowE>
    191b:	48 63 ff             	movslq %edi,%rdi
    191e:	48 83 c0 1f          	add    $0x1f,%rax
    1922:	48 83 e0 e0          	and    $0xffffffffffffffe0,%rax
    1926:	48 8d 14 b8          	lea    (%rax,%rdi,4),%rdx
    192a:	48 89 15 3f 47 00 00 	mov    %rdx,0x473f(%rip)        # 6070 <_ZN4poly9poly_base10mem_helper3nowE>
    1931:	c3                   	ret    
    1932:	66 66 2e 0f 1f 84 00 	data16 cs nopw 0x0(%rax,%rax,1)
    1939:	00 00 00 00 
    193d:	0f 1f 00             	nopl   (%rax)

0000000000001940 <_ZN4poly3dotEPjiPKj>:
    1940:	f3 0f 1e fa          	endbr64 
    1944:	83 fe 07             	cmp    $0x7,%esi
    1947:	0f 8e cb 00 00 00    	jle    1a18 <_ZN4poly3dotEPjiPKj+0xd8>
    194d:	44 8d 46 f8          	lea    -0x8(%rsi),%r8d
    1951:	c5 fd 6f 35 47 21 00 	vmovdqa 0x2147(%rip),%ymm6        # 3aa0 <_ZN4poly7f_n_t_tL4iab4E+0xa40>
    1958:	00 
    1959:	c5 fd 6f 2d 5f 21 00 	vmovdqa 0x215f(%rip),%ymm5        # 3ac0 <_ZN4poly7f_n_t_tL4iab4E+0xa60>
    1960:	00 
    1961:	31 c0                	xor    %eax,%eax
    1963:	41 c1 e8 03          	shr    $0x3,%r8d
    1967:	44 89 c1             	mov    %r8d,%ecx
    196a:	48 ff c1             	inc    %rcx
    196d:	48 c1 e1 05          	shl    $0x5,%rcx
    1971:	0f 1f 80 00 00 00 00 	nopl   0x0(%rax)
    1978:	c5 fd 6f 04 07       	vmovdqa (%rdi,%rax,1),%ymm0
    197d:	c5 fd 6f 24 02       	vmovdqa (%rdx,%rax,1),%ymm4
    1982:	c5 f5 73 d0 20       	vpsrlq $0x20,%ymm0,%ymm1
    1987:	c5 ed 73 d4 20       	vpsrlq $0x20,%ymm4,%ymm2
    198c:	c5 f5 f4 d2          	vpmuludq %ymm2,%ymm1,%ymm2
    1990:	c4 e2 5d 40 c8       	vpmulld %ymm0,%ymm4,%ymm1
    1995:	c5 fd f4 c4          	vpmuludq %ymm4,%ymm0,%ymm0
    1999:	c4 e2 75 40 ce       	vpmulld %ymm6,%ymm1,%ymm1
    199e:	c5 fd 70 d9 f5       	vpshufd $0xf5,%ymm1,%ymm3
    19a3:	c5 f5 f4 cd          	vpmuludq %ymm5,%ymm1,%ymm1
    19a7:	c5 e5 f4 dd          	vpmuludq %ymm5,%ymm3,%ymm3
    19ab:	c5 fd d4 c1          	vpaddq %ymm1,%ymm0,%ymm0
    19af:	c5 fd 73 d0 20       	vpsrlq $0x20,%ymm0,%ymm0
    19b4:	c5 ed d4 cb          	vpaddq %ymm3,%ymm2,%ymm1
    19b8:	c4 e3 7d 02 c1 aa    	vpblendd $0xaa,%ymm1,%ymm0,%ymm0
    19be:	c5 fd 7f 04 07       	vmovdqa %ymm0,(%rdi,%rax,1)
    19c3:	48 83 c0 20          	add    $0x20,%rax
    19c7:	48 39 c1             	cmp    %rax,%rcx
    19ca:	75 ac                	jne    1978 <_ZN4poly3dotEPjiPKj+0x38>
    19cc:	42 8d 0c c5 08 00 00 	lea    0x8(,%r8,8),%ecx
    19d3:	00 
    19d4:	c5 f8 77             	vzeroupper 
    19d7:	39 ce                	cmp    %ecx,%esi
    19d9:	7e 35                	jle    1a10 <_ZN4poly3dotEPjiPKj+0xd0>
    19db:	48 63 c9             	movslq %ecx,%rcx
    19de:	66 90                	xchg   %ax,%ax
    19e0:	8b 04 8f             	mov    (%rdi,%rcx,4),%eax
    19e3:	44 8b 04 8a          	mov    (%rdx,%rcx,4),%r8d
    19e7:	4c 0f af c0          	imul   %rax,%r8
    19eb:	41 69 c0 ff ff 3f 06 	imul   $0x63fffff,%r8d,%eax
    19f2:	48 69 c0 01 00 40 06 	imul   $0x6400001,%rax,%rax
    19f9:	4c 01 c0             	add    %r8,%rax
    19fc:	48 c1 e8 20          	shr    $0x20,%rax
    1a00:	89 04 8f             	mov    %eax,(%rdi,%rcx,4)
    1a03:	48 ff c1             	inc    %rcx
    1a06:	39 ce                	cmp    %ecx,%esi
    1a08:	7f d6                	jg     19e0 <_ZN4poly3dotEPjiPKj+0xa0>
    1a0a:	c3                   	ret    
    1a0b:	0f 1f 44 00 00       	nopl   0x0(%rax,%rax,1)
    1a10:	c3                   	ret    
    1a11:	0f 1f 80 00 00 00 00 	nopl   0x0(%rax)
    1a18:	31 c9                	xor    %ecx,%ecx
    1a1a:	eb bb                	jmp    19d7 <_ZN4poly3dotEPjiPKj+0x97>
    1a1c:	0f 1f 40 00          	nopl   0x0(%rax)

0000000000001a20 <_ZN4poly3dotEPKjS1_iPj>:
    1a20:	f3 0f 1e fa          	endbr64 
    1a24:	83 fa 07             	cmp    $0x7,%edx
    1a27:	0f 8e cb 00 00 00    	jle    1af8 <_ZN4poly3dotEPKjS1_iPj+0xd8>
    1a2d:	44 8d 4a f8          	lea    -0x8(%rdx),%r9d
    1a31:	c5 fd 6f 35 67 20 00 	vmovdqa 0x2067(%rip),%ymm6        # 3aa0 <_ZN4poly7f_n_t_tL4iab4E+0xa40>
    1a38:	00 
    1a39:	c5 fd 6f 2d 7f 20 00 	vmovdqa 0x207f(%rip),%ymm5        # 3ac0 <_ZN4poly7f_n_t_tL4iab4E+0xa60>
    1a40:	00 
    1a41:	31 c0                	xor    %eax,%eax
    1a43:	41 c1 e9 03          	shr    $0x3,%r9d
    1a47:	45 89 c8             	mov    %r9d,%r8d
    1a4a:	49 ff c0             	inc    %r8
    1a4d:	49 c1 e0 05          	shl    $0x5,%r8
    1a51:	0f 1f 80 00 00 00 00 	nopl   0x0(%rax)
    1a58:	c5 fd 6f 04 07       	vmovdqa (%rdi,%rax,1),%ymm0
    1a5d:	c5 fd 6f 24 06       	vmovdqa (%rsi,%rax,1),%ymm4
    1a62:	c5 f5 73 d0 20       	vpsrlq $0x20,%ymm0,%ymm1
    1a67:	c5 ed 73 d4 20       	vpsrlq $0x20,%ymm4,%ymm2
    1a6c:	c5 f5 f4 d2          	vpmuludq %ymm2,%ymm1,%ymm2
    1a70:	c4 e2 5d 40 c8       	vpmulld %ymm0,%ymm4,%ymm1
    1a75:	c5 fd f4 c4          	vpmuludq %ymm4,%ymm0,%ymm0
    1a79:	c4 e2 75 40 ce       	vpmulld %ymm6,%ymm1,%ymm1
    1a7e:	c5 fd 70 d9 f5       	vpshufd $0xf5,%ymm1,%ymm3
    1a83:	c5 f5 f4 cd          	vpmuludq %ymm5,%ymm1,%ymm1
    1a87:	c5 e5 f4 dd          	vpmuludq %ymm5,%ymm3,%ymm3
    1a8b:	c5 fd d4 c1          	vpaddq %ymm1,%ymm0,%ymm0
    1a8f:	c5 fd 73 d0 20       	vpsrlq $0x20,%ymm0,%ymm0
    1a94:	c5 ed d4 cb          	vpaddq %ymm3,%ymm2,%ymm1
    1a98:	c4 e3 7d 02 c1 aa    	vpblendd $0xaa,%ymm1,%ymm0,%ymm0
    1a9e:	c5 fd 7f 04 01       	vmovdqa %ymm0,(%rcx,%rax,1)
    1aa3:	48 83 c0 20          	add    $0x20,%rax
    1aa7:	49 39 c0             	cmp    %rax,%r8
    1aaa:	75 ac                	jne    1a58 <_ZN4poly3dotEPKjS1_iPj+0x38>
    1aac:	46 8d 04 cd 08 00 00 	lea    0x8(,%r9,8),%r8d
    1ab3:	00 
    1ab4:	c5 f8 77             	vzeroupper 
    1ab7:	44 39 c2             	cmp    %r8d,%edx
    1aba:	7e 34                	jle    1af0 <_ZN4poly3dotEPKjS1_iPj+0xd0>
    1abc:	4d 63 c0             	movslq %r8d,%r8
    1abf:	90                   	nop
    1ac0:	42 8b 04 87          	mov    (%rdi,%r8,4),%eax
    1ac4:	46 8b 0c 86          	mov    (%rsi,%r8,4),%r9d
    1ac8:	4c 0f af c8          	imul   %rax,%r9
    1acc:	41 69 c1 ff ff 3f 06 	imul   $0x63fffff,%r9d,%eax
    1ad3:	48 69 c0 01 00 40 06 	imul   $0x6400001,%rax,%rax
    1ada:	4c 01 c8             	add    %r9,%rax
    1add:	48 c1 e8 20          	shr    $0x20,%rax
    1ae1:	42 89 04 81          	mov    %eax,(%rcx,%r8,4)
    1ae5:	49 ff c0             	inc    %r8
    1ae8:	44 39 c2             	cmp    %r8d,%edx
    1aeb:	7f d3                	jg     1ac0 <_ZN4poly3dotEPKjS1_iPj+0xa0>
    1aed:	c3                   	ret    
    1aee:	66 90                	xchg   %ax,%ax
    1af0:	c3                   	ret    
    1af1:	0f 1f 80 00 00 00 00 	nopl   0x0(%rax)
    1af8:	45 31 c0             	xor    %r8d,%r8d
    1afb:	eb ba                	jmp    1ab7 <_ZN4poly3dotEPKjS1_iPj+0x97>
    1afd:	0f 1f 00             	nopl   (%rax)

0000000000001b00 <_ZN4poly7f_n_t_t8dif_funcEPv>:
    1b00:	f3 0f 1e fa          	endbr64 
    1b04:	55                   	push   %rbp
    1b05:	48 89 e5             	mov    %rsp,%rbp
    1b08:	41 57                	push   %r15
    1b0a:	41 56                	push   %r14
    1b0c:	4c 8d 35 4d 15 00 00 	lea    0x154d(%rip),%r14        # 3060 <_ZN4poly7f_n_t_tL4iab4E>
    1b13:	41 55                	push   %r13
    1b15:	41 54                	push   %r12
    1b17:	53                   	push   %rbx
    1b18:	48 83 e4 e0          	and    $0xffffffffffffffe0,%rsp
    1b1c:	48 81 ec e0 00 00 00 	sub    $0xe0,%rsp
    1b23:	44 8b 2f             	mov    (%rdi),%r13d
    1b26:	48 8b 57 08          	mov    0x8(%rdi),%rdx
    1b2a:	44 8b 7f 14          	mov    0x14(%rdi),%r15d
    1b2e:	44 8b 67 10          	mov    0x10(%rdi),%r12d
    1b32:	44 89 e8             	mov    %r13d,%eax
    1b35:	f7 d0                	not    %eax
    1b37:	41 c1 fc 03          	sar    $0x3,%r12d
    1b3b:	42 8d 1c bd 00 00 00 	lea    0x0(,%r15,4),%ebx
    1b42:	00 
    1b43:	89 44 24 1c          	mov    %eax,0x1c(%rsp)
    1b47:	49 63 c5             	movslq %r13d,%rax
    1b4a:	48 89 44 24 08       	mov    %rax,0x8(%rsp)
    1b4f:	48 8d 42 20          	lea    0x20(%rdx),%rax
    1b53:	48 89 44 24 10       	mov    %rax,0x10(%rsp)
    1b58:	0f 1f 84 00 00 00 00 	nopl   0x0(%rax,%rax,1)
    1b5f:	00 
    1b60:	31 c0                	xor    %eax,%eax
    1b62:	41 b8 17 00 00 00    	mov    $0x17,%r8d
    1b68:	b9 0f 00 00 00       	mov    $0xf,%ecx
    1b6d:	44 89 fa             	mov    %r15d,%edx
    1b70:	48 8d 35 8d 14 00 00 	lea    0x148d(%rip),%rsi        # 3004 <_IO_stdin_used+0x4>
    1b77:	bf 01 00 00 00       	mov    $0x1,%edi
    1b7c:	e8 df f5 ff ff       	call   1160 <__printf_chk@plt>
    1b81:	45 85 e4             	test   %r12d,%r12d
    1b84:	c5 7d 6f 25 34 1f 00 	vmovdqa 0x1f34(%rip),%ymm12        # 3ac0 <_ZN4poly7f_n_t_tL4iab4E+0xa60>
    1b8b:	00 
    1b8c:	c5 7d 6f 3d ac 1f 00 	vmovdqa 0x1fac(%rip),%ymm15        # 3b40 <_ZN4poly7f_n_t_tL4iab4E+0xae0>
    1b93:	00 
    1b94:	c5 7d 6f 35 c4 1f 00 	vmovdqa 0x1fc4(%rip),%ymm14        # 3b60 <_ZN4poly7f_n_t_tL4iab4E+0xb00>
    1b9b:	00 
    1b9c:	0f 8e 8e 03 00 00    	jle    1f30 <_ZN4poly7f_n_t_t8dif_funcEPv+0x430>
    1ba2:	8b 44 24 1c          	mov    0x1c(%rsp),%eax
    1ba6:	4c 63 db             	movslq %ebx,%r11
    1ba9:	49 63 f7             	movslq %r15d,%rsi
    1bac:	41 b9 fe ff ff ff    	mov    $0xfffffffe,%r9d
    1bb2:	c5 fd 6f 25 26 1f 00 	vmovdqa 0x1f26(%rip),%ymm4        # 3ae0 <_ZN4poly7f_n_t_tL4iab4E+0xa80>
    1bb9:	00 
    1bba:	49 c1 e3 05          	shl    $0x5,%r11
    1bbe:	48 c1 e6 05          	shl    $0x5,%rsi
    1bc2:	45 31 c0             	xor    %r8d,%r8d
    1bc5:	46 8d 14 38          	lea    (%rax,%r15,1),%r10d
    1bc9:	48 8b 44 24 08       	mov    0x8(%rsp),%rax
    1bce:	c5 7d 6f 1d 2a 1f 00 	vmovdqa 0x1f2a(%rip),%ymm11        # 3b00 <_ZN4poly7f_n_t_tL4iab4E+0xaa0>
    1bd5:	00 
    1bd6:	c5 fd 7f 64 24 20    	vmovdqa %ymm4,0x20(%rsp)
    1bdc:	49 8d 3c 02          	lea    (%r10,%rax,1),%rdi
    1be0:	43 8d 04 3f          	lea    (%r15,%r15,1),%eax
    1be4:	49 f7 d2             	not    %r10
    1be7:	42 8d 14 38          	lea    (%rax,%r15,1),%edx
    1beb:	48 c1 e7 05          	shl    $0x5,%rdi
    1bef:	48 63 c8             	movslq %eax,%rcx
    1bf2:	48 03 7c 24 10       	add    0x10(%rsp),%rdi
    1bf7:	48 c1 e1 05          	shl    $0x5,%rcx
    1bfb:	48 63 d2             	movslq %edx,%rdx
    1bfe:	49 c1 e2 05          	shl    $0x5,%r10
    1c02:	48 c1 e2 05          	shl    $0x5,%rdx
    1c06:	66 2e 0f 1f 84 00 00 	cs nopw 0x0(%rax,%rax,1)
    1c0d:	00 00 00 
    1c10:	c4 c2 25 40 cb       	vpmulld %ymm11,%ymm11,%ymm1
    1c15:	c4 c1 5d 73 d3 20    	vpsrlq $0x20,%ymm11,%ymm4
    1c1b:	c4 62 25 40 0d 7c 1e 	vpmulld 0x1e7c(%rip),%ymm11,%ymm9        # 3aa0 <_ZN4poly7f_n_t_tL4iab4E+0xa40>
    1c22:	00 00 
    1c24:	c4 41 25 f4 c3       	vpmuludq %ymm11,%ymm11,%ymm8
    1c29:	c5 dd f4 c4          	vpmuludq %ymm4,%ymm4,%ymm0
    1c2d:	c5 fd 7f 64 24 40    	vmovdqa %ymm4,0x40(%rsp)
    1c33:	c4 e2 75 40 0d 64 1e 	vpmulld 0x1e64(%rip),%ymm1,%ymm1        # 3aa0 <_ZN4poly7f_n_t_tL4iab4E+0xa40>
    1c3a:	00 00 
    1c3c:	c5 fd 70 d1 f5       	vpshufd $0xf5,%ymm1,%ymm2
    1c41:	c4 c1 75 f4 cc       	vpmuludq %ymm12,%ymm1,%ymm1
    1c46:	c5 7d 6f ec          	vmovdqa %ymm4,%ymm13
    1c4a:	c4 c1 6d f4 d4       	vpmuludq %ymm12,%ymm2,%ymm2
    1c4f:	c5 3d d4 c1          	vpaddq %ymm1,%ymm8,%ymm8
    1c53:	c5 fd d4 c2          	vpaddq %ymm2,%ymm0,%ymm0
    1c57:	c4 c1 3d 73 d0 20    	vpsrlq $0x20,%ymm8,%ymm8
    1c5d:	c4 63 3d 02 c0 aa    	vpblendd $0xaa,%ymm0,%ymm8,%ymm8
    1c63:	c5 bd fe 05 b5 1e 00 	vpaddd 0x1eb5(%rip),%ymm8,%ymm0        # 3b20 <_ZN4poly7f_n_t_tL4iab4E+0xac0>
    1c6a:	00 
    1c6b:	c5 bd 72 e0 1f       	vpsrad $0x1f,%ymm0,%ymm8
    1c70:	c4 41 3d db c4       	vpand  %ymm12,%ymm8,%ymm8
    1c75:	c5 3d fe c0          	vpaddd %ymm0,%ymm8,%ymm8
    1c79:	c4 c2 3d 40 c9       	vpmulld %ymm9,%ymm8,%ymm1
    1c7e:	c4 c1 7d 73 d0 20    	vpsrlq $0x20,%ymm8,%ymm0
    1c84:	c5 fd 7f 84 24 c0 00 	vmovdqa %ymm0,0xc0(%rsp)
    1c8b:	00 00 
    1c8d:	c4 41 3d f4 d3       	vpmuludq %ymm11,%ymm8,%ymm10
    1c92:	c5 fd f4 c4          	vpmuludq %ymm4,%ymm0,%ymm0
    1c96:	c5 fd 70 d1 f5       	vpshufd $0xf5,%ymm1,%ymm2
    1c9b:	c4 c1 75 f4 cc       	vpmuludq %ymm12,%ymm1,%ymm1
    1ca0:	c4 c1 6d f4 d4       	vpmuludq %ymm12,%ymm2,%ymm2
    1ca5:	c5 2d d4 d1          	vpaddq %ymm1,%ymm10,%ymm10
    1ca9:	c5 fd d4 c2          	vpaddq %ymm2,%ymm0,%ymm0
    1cad:	c4 c1 2d 73 d2 20    	vpsrlq $0x20,%ymm10,%ymm10
    1cb3:	c4 63 2d 02 d0 aa    	vpblendd $0xaa,%ymm0,%ymm10,%ymm10
    1cb9:	c5 ad fe 05 5f 1e 00 	vpaddd 0x1e5f(%rip),%ymm10,%ymm0        # 3b20 <_ZN4poly7f_n_t_tL4iab4E+0xac0>
    1cc0:	00 
    1cc1:	c5 ad 72 e0 1f       	vpsrad $0x1f,%ymm0,%ymm10
    1cc6:	c4 41 2d db d4       	vpand  %ymm12,%ymm10,%ymm10
    1ccb:	c5 2d fe d0          	vpaddd %ymm0,%ymm10,%ymm10
    1ccf:	45 39 ef             	cmp    %r13d,%r15d
    1cd2:	0f 8e d1 01 00 00    	jle    1ea9 <_ZN4poly7f_n_t_t8dif_funcEPv+0x3a9>
    1cd8:	c4 e2 3d 40 25 bf 1d 	vpmulld 0x1dbf(%rip),%ymm8,%ymm4        # 3aa0 <_ZN4poly7f_n_t_tL4iab4E+0xa40>
    1cdf:	00 00 
    1ce1:	c5 fd 7f 64 24 60    	vmovdqa %ymm4,0x60(%rsp)
    1ce7:	c4 e2 2d 40 25 b0 1d 	vpmulld 0x1db0(%rip),%ymm10,%ymm4        # 3aa0 <_ZN4poly7f_n_t_tL4iab4E+0xa40>
    1cee:	00 00 
    1cf0:	49 8d 04 3a          	lea    (%r10,%rdi,1),%rax
    1cf4:	c5 fd 7f a4 24 80 00 	vmovdqa %ymm4,0x80(%rsp)
    1cfb:	00 00 
    1cfd:	c4 c1 5d 73 d2 20    	vpsrlq $0x20,%ymm10,%ymm4
    1d03:	c5 fd 7f a4 24 a0 00 	vmovdqa %ymm4,0xa0(%rsp)
    1d0a:	00 00 
    1d0c:	0f 1f 40 00          	nopl   0x0(%rax)
    1d10:	c5 fd 6f 04 30       	vmovdqa (%rax,%rsi,1),%ymm0
    1d15:	c5 85 fe 10          	vpaddd (%rax),%ymm15,%ymm2
    1d19:	48 83 c0 20          	add    $0x20,%rax
    1d1d:	c4 c2 7d 40 d9       	vpmulld %ymm9,%ymm0,%ymm3
    1d22:	c5 dd 72 e2 1f       	vpsrad $0x1f,%ymm2,%ymm4
    1d27:	c4 c1 5d db e6       	vpand  %ymm14,%ymm4,%ymm4
    1d2c:	c5 dd fe e2          	vpaddd %ymm2,%ymm4,%ymm4
    1d30:	c5 ed 73 d0 20       	vpsrlq $0x20,%ymm0,%ymm2
    1d35:	c4 c1 7d f4 c3       	vpmuludq %ymm11,%ymm0,%ymm0
    1d3a:	c4 c1 6d f4 d5       	vpmuludq %ymm13,%ymm2,%ymm2
    1d3f:	c5 fd 70 eb f5       	vpshufd $0xf5,%ymm3,%ymm5
    1d44:	c4 c1 65 f4 dc       	vpmuludq %ymm12,%ymm3,%ymm3
    1d49:	c4 c1 55 f4 ec       	vpmuludq %ymm12,%ymm5,%ymm5
    1d4e:	c5 fd d4 db          	vpaddq %ymm3,%ymm0,%ymm3
    1d52:	c5 fd 6f 44 08 e0    	vmovdqa -0x20(%rax,%rcx,1),%ymm0
    1d58:	c5 ed d4 cd          	vpaddq %ymm5,%ymm2,%ymm1
    1d5c:	c5 e5 73 d3 20       	vpsrlq $0x20,%ymm3,%ymm3
    1d61:	c4 e2 7d 40 6c 24 60 	vpmulld 0x60(%rsp),%ymm0,%ymm5
    1d68:	c5 fd 70 f5 f5       	vpshufd $0xf5,%ymm5,%ymm6
    1d6d:	c4 c1 55 f4 ec       	vpmuludq %ymm12,%ymm5,%ymm5
    1d72:	c4 c1 4d f4 f4       	vpmuludq %ymm12,%ymm6,%ymm6
    1d77:	c4 e3 65 02 c9 aa    	vpblendd $0xaa,%ymm1,%ymm3,%ymm1
    1d7d:	c5 e5 73 d0 20       	vpsrlq $0x20,%ymm0,%ymm3
    1d82:	c4 c1 7d f4 c0       	vpmuludq %ymm8,%ymm0,%ymm0
    1d87:	c5 e5 f4 9c 24 c0 00 	vpmuludq 0xc0(%rsp),%ymm3,%ymm3
    1d8e:	00 00 
    1d90:	c5 e5 d4 d6          	vpaddq %ymm6,%ymm3,%ymm2
    1d94:	c5 fd d4 ed          	vpaddq %ymm5,%ymm0,%ymm5
    1d98:	c5 fd 6f 44 10 e0    	vmovdqa -0x20(%rax,%rdx,1),%ymm0
    1d9e:	c4 e2 7d 40 b4 24 80 	vpmulld 0x80(%rsp),%ymm0,%ymm6
    1da5:	00 00 00 
    1da8:	c5 fd 70 fe f5       	vpshufd $0xf5,%ymm6,%ymm7
    1dad:	c5 d5 73 d5 20       	vpsrlq $0x20,%ymm5,%ymm5
    1db2:	c4 c1 4d f4 f4       	vpmuludq %ymm12,%ymm6,%ymm6
    1db7:	c4 e3 55 02 d2 aa    	vpblendd $0xaa,%ymm2,%ymm5,%ymm2
    1dbd:	c5 d5 73 d0 20       	vpsrlq $0x20,%ymm0,%ymm5
    1dc2:	c5 d5 f4 ac 24 a0 00 	vpmuludq 0xa0(%rsp),%ymm5,%ymm5
    1dc9:	00 00 
    1dcb:	c4 c1 7d f4 c2       	vpmuludq %ymm10,%ymm0,%ymm0
    1dd0:	c4 c1 45 f4 fc       	vpmuludq %ymm12,%ymm7,%ymm7
    1dd5:	c5 fd d4 f6          	vpaddq %ymm6,%ymm0,%ymm6
    1dd9:	c5 d5 d4 df          	vpaddq %ymm7,%ymm5,%ymm3
    1ddd:	c5 cd 73 d6 20       	vpsrlq $0x20,%ymm6,%ymm6
    1de2:	c4 c1 75 fe c6       	vpaddd %ymm14,%ymm1,%ymm0
    1de7:	c4 e3 4d 02 db aa    	vpblendd $0xaa,%ymm3,%ymm6,%ymm3
    1ded:	c5 fd fa c3          	vpsubd %ymm3,%ymm0,%ymm0
    1df1:	c5 f5 fe cb          	vpaddd %ymm3,%ymm1,%ymm1
    1df5:	c4 e2 7d 40 35 a2 1d 	vpmulld 0x1da2(%rip),%ymm0,%ymm6        # 3ba0 <_ZN4poly7f_n_t_tL4iab4E+0xb40>
    1dfc:	00 00 
    1dfe:	c5 fd 70 fe f5       	vpshufd $0xf5,%ymm6,%ymm7
    1e03:	c4 c1 4d f4 f4       	vpmuludq %ymm12,%ymm6,%ymm6
    1e08:	c4 c1 45 f4 fc       	vpmuludq %ymm12,%ymm7,%ymm7
    1e0d:	c4 c1 75 fe cf       	vpaddd %ymm15,%ymm1,%ymm1
    1e12:	c5 d5 73 d0 20       	vpsrlq $0x20,%ymm0,%ymm5
    1e17:	c5 fd f4 05 a1 1d 00 	vpmuludq 0x1da1(%rip),%ymm0,%ymm0        # 3bc0 <_ZN4poly7f_n_t_tL4iab4E+0xb60>
    1e1e:	00 
    1e1f:	c5 d5 f4 2d 59 1d 00 	vpmuludq 0x1d59(%rip),%ymm5,%ymm5        # 3b80 <_ZN4poly7f_n_t_tL4iab4E+0xb20>
    1e26:	00 
    1e27:	c5 fd d4 c6          	vpaddq %ymm6,%ymm0,%ymm0
    1e2b:	c4 c1 6d fe f7       	vpaddd %ymm15,%ymm2,%ymm6
    1e30:	c5 cd fe f4          	vpaddd %ymm4,%ymm6,%ymm6
    1e34:	c5 fd 73 d0 20       	vpsrlq $0x20,%ymm0,%ymm0
    1e39:	c5 d5 d4 ef          	vpaddq %ymm7,%ymm5,%ymm5
    1e3d:	c4 e3 7d 02 ed aa    	vpblendd $0xaa,%ymm5,%ymm0,%ymm5
    1e43:	c5 fd 72 e6 1f       	vpsrad $0x1f,%ymm6,%ymm0
    1e48:	c5 dd fa d2          	vpsubd %ymm2,%ymm4,%ymm2
    1e4c:	c4 c1 7d db c6       	vpand  %ymm14,%ymm0,%ymm0
    1e51:	c5 e5 72 e2 1f       	vpsrad $0x1f,%ymm2,%ymm3
    1e56:	c5 fd fe c6          	vpaddd %ymm6,%ymm0,%ymm0
    1e5a:	c5 cd 72 e1 1f       	vpsrad $0x1f,%ymm1,%ymm6
    1e5f:	c4 c1 65 db de       	vpand  %ymm14,%ymm3,%ymm3
    1e64:	c4 c1 4d db f6       	vpand  %ymm14,%ymm6,%ymm6
    1e69:	c5 e5 fe d2          	vpaddd %ymm2,%ymm3,%ymm2
    1e6d:	c5 cd fe c9          	vpaddd %ymm1,%ymm6,%ymm1
    1e71:	c5 f5 fe d8          	vpaddd %ymm0,%ymm1,%ymm3
    1e75:	c5 8d fa c9          	vpsubd %ymm1,%ymm14,%ymm1
    1e79:	c5 f5 fe c0          	vpaddd %ymm0,%ymm1,%ymm0
    1e7d:	c5 fd 7f 58 e0       	vmovdqa %ymm3,-0x20(%rax)
    1e82:	c5 fd 7f 44 30 e0    	vmovdqa %ymm0,-0x20(%rax,%rsi,1)
    1e88:	c5 d5 fe c2          	vpaddd %ymm2,%ymm5,%ymm0
    1e8c:	c5 8d fa ed          	vpsubd %ymm5,%ymm14,%ymm5
    1e90:	c5 d5 fe d2          	vpaddd %ymm2,%ymm5,%ymm2
    1e94:	c5 fd 7f 44 08 e0    	vmovdqa %ymm0,-0x20(%rax,%rcx,1)
    1e9a:	c5 fd 7f 54 10 e0    	vmovdqa %ymm2,-0x20(%rax,%rdx,1)
    1ea0:	48 39 f8             	cmp    %rdi,%rax
    1ea3:	0f 85 67 fe ff ff    	jne    1d10 <_ZN4poly7f_n_t_t8dif_funcEPv+0x210>
    1ea9:	c5 fd 6f 64 24 20    	vmovdqa 0x20(%rsp),%ymm4
    1eaf:	41 01 d8             	add    %ebx,%r8d
    1eb2:	4c 01 df             	add    %r11,%rdi
    1eb5:	c4 62 35 40 cc       	vpmulld %ymm4,%ymm9,%ymm9
    1eba:	c5 25 f4 dc          	vpmuludq %ymm4,%ymm11,%ymm11
    1ebe:	c5 fd 73 d4 20       	vpsrlq $0x20,%ymm4,%ymm0
    1ec3:	c5 fd f4 44 24 40    	vpmuludq 0x40(%rsp),%ymm0,%ymm0
    1ec9:	c4 c1 7d 70 c9 f5    	vpshufd $0xf5,%ymm9,%ymm1
    1ecf:	c4 41 35 f4 cc       	vpmuludq %ymm12,%ymm9,%ymm9
    1ed4:	c4 c1 75 f4 cc       	vpmuludq %ymm12,%ymm1,%ymm1
    1ed9:	c4 41 25 d4 d9       	vpaddq %ymm9,%ymm11,%ymm11
    1ede:	c5 fd d4 c1          	vpaddq %ymm1,%ymm0,%ymm0
    1ee2:	c4 c1 25 73 d3 20    	vpsrlq $0x20,%ymm11,%ymm11
    1ee8:	c4 63 25 02 d8 aa    	vpblendd $0xaa,%ymm0,%ymm11,%ymm11
    1eee:	c5 25 fe 1d 2a 1c 00 	vpaddd 0x1c2a(%rip),%ymm11,%ymm11        # 3b20 <_ZN4poly7f_n_t_tL4iab4E+0xac0>
    1ef5:	00 
    1ef6:	c4 c1 7d 72 e3 1f    	vpsrad $0x1f,%ymm11,%ymm0
    1efc:	c4 c1 7d db c4       	vpand  %ymm12,%ymm0,%ymm0
    1f01:	c4 41 7d fe db       	vpaddd %ymm11,%ymm0,%ymm11
    1f06:	45 39 c4             	cmp    %r8d,%r12d
    1f09:	7e 25                	jle    1f30 <_ZN4poly7f_n_t_t8dif_funcEPv+0x430>
    1f0b:	31 c0                	xor    %eax,%eax
    1f0d:	f3 41 0f bc c1       	tzcnt  %r9d,%eax
    1f12:	41 ff c9             	dec    %r9d
    1f15:	48 98                	cltq   
    1f17:	48 c1 e0 05          	shl    $0x5,%rax
    1f1b:	c4 c1 7d 6f 24 06    	vmovdqa (%r14,%rax,1),%ymm4
    1f21:	c5 fd 7f 64 24 20    	vmovdqa %ymm4,0x20(%rsp)
    1f27:	e9 e4 fc ff ff       	jmp    1c10 <_ZN4poly7f_n_t_t8dif_funcEPv+0x110>
    1f2c:	0f 1f 40 00          	nopl   0x0(%rax)
    1f30:	41 c1 ff 02          	sar    $0x2,%r15d
    1f34:	c1 fb 02             	sar    $0x2,%ebx
    1f37:	c5 f8 77             	vzeroupper 
    1f3a:	e9 21 fc ff ff       	jmp    1b60 <_ZN4poly7f_n_t_t8dif_funcEPv+0x60>
    1f3f:	90                   	nop

0000000000001f40 <_ZN4poly7f_n_t_t8dit_funcEPv>:
    1f40:	f3 0f 1e fa          	endbr64 
    1f44:	55                   	push   %rbp
    1f45:	48 89 e5             	mov    %rsp,%rbp
    1f48:	41 57                	push   %r15
    1f4a:	4c 8d 3d 0f 11 00 00 	lea    0x110f(%rip),%r15        # 3060 <_ZN4poly7f_n_t_tL4iab4E>
    1f51:	41 56                	push   %r14
    1f53:	41 55                	push   %r13
    1f55:	41 54                	push   %r12
    1f57:	53                   	push   %rbx
    1f58:	48 83 e4 e0          	and    $0xffffffffffffffe0,%rsp
    1f5c:	48 81 ec c0 00 00 00 	sub    $0xc0,%rsp
    1f63:	44 8b 37             	mov    (%rdi),%r14d
    1f66:	48 8b 57 08          	mov    0x8(%rdi),%rdx
    1f6a:	8b 5f 14             	mov    0x14(%rdi),%ebx
    1f6d:	44 8b 6f 10          	mov    0x10(%rdi),%r13d
    1f71:	44 89 f0             	mov    %r14d,%eax
    1f74:	c5 7d 6f 25 44 1b 00 	vmovdqa 0x1b44(%rip),%ymm12        # 3ac0 <_ZN4poly7f_n_t_tL4iab4E+0xa60>
    1f7b:	00 
    1f7c:	c5 7d 6f 3d dc 1b 00 	vmovdqa 0x1bdc(%rip),%ymm15        # 3b60 <_ZN4poly7f_n_t_tL4iab4E+0xb00>
    1f83:	00 
    1f84:	f7 d0                	not    %eax
    1f86:	c5 7d 6f 35 b2 1b 00 	vmovdqa 0x1bb2(%rip),%ymm14        # 3b40 <_ZN4poly7f_n_t_tL4iab4E+0xae0>
    1f8d:	00 
    1f8e:	41 c1 fd 03          	sar    $0x3,%r13d
    1f92:	44 8d 24 9d 00 00 00 	lea    0x0(,%rbx,4),%r12d
    1f99:	00 
    1f9a:	89 44 24 0c          	mov    %eax,0xc(%rsp)
    1f9e:	49 63 c6             	movslq %r14d,%rax
    1fa1:	48 89 44 24 18       	mov    %rax,0x18(%rsp)
    1fa6:	48 8d 42 20          	lea    0x20(%rdx),%rax
    1faa:	48 89 44 24 10       	mov    %rax,0x10(%rsp)
    1faf:	90                   	nop
    1fb0:	45 85 ed             	test   %r13d,%r13d
    1fb3:	0f 8e 6e 03 00 00    	jle    2327 <_ZN4poly7f_n_t_t8dit_funcEPv+0x3e7>
    1fb9:	8b 44 24 0c          	mov    0xc(%rsp),%eax
    1fbd:	4d 63 dc             	movslq %r12d,%r11
    1fc0:	48 63 f3             	movslq %ebx,%rsi
    1fc3:	41 b9 ff ff ff ff    	mov    $0xffffffff,%r9d
    1fc9:	c5 7d 6f 1d 2f 1b 00 	vmovdqa 0x1b2f(%rip),%ymm11        # 3b00 <_ZN4poly7f_n_t_tL4iab4E+0xaa0>
    1fd0:	00 
    1fd1:	49 c1 e3 05          	shl    $0x5,%r11
    1fd5:	48 c1 e6 05          	shl    $0x5,%rsi
    1fd9:	45 31 c0             	xor    %r8d,%r8d
    1fdc:	44 8d 14 18          	lea    (%rax,%rbx,1),%r10d
    1fe0:	48 8b 44 24 18       	mov    0x18(%rsp),%rax
    1fe5:	49 8d 3c 02          	lea    (%r10,%rax,1),%rdi
    1fe9:	8d 04 1b             	lea    (%rbx,%rbx,1),%eax
    1fec:	49 f7 d2             	not    %r10
    1fef:	8d 14 18             	lea    (%rax,%rbx,1),%edx
    1ff2:	48 c1 e7 05          	shl    $0x5,%rdi
    1ff6:	48 63 c8             	movslq %eax,%rcx
    1ff9:	48 03 7c 24 10       	add    0x10(%rsp),%rdi
    1ffe:	48 c1 e1 05          	shl    $0x5,%rcx
    2002:	48 63 d2             	movslq %edx,%rdx
    2005:	49 c1 e2 05          	shl    $0x5,%r10
    2009:	48 c1 e2 05          	shl    $0x5,%rdx
    200d:	0f 1f 00             	nopl   (%rax)
    2010:	c4 c2 25 40 cb       	vpmulld %ymm11,%ymm11,%ymm1
    2015:	c4 c1 4d 73 d3 20    	vpsrlq $0x20,%ymm11,%ymm6
    201b:	c4 62 25 40 0d 7c 1a 	vpmulld 0x1a7c(%rip),%ymm11,%ymm9        # 3aa0 <_ZN4poly7f_n_t_tL4iab4E+0xa40>
    2022:	00 00 
    2024:	c4 41 25 f4 c3       	vpmuludq %ymm11,%ymm11,%ymm8
    2029:	c5 cd f4 c6          	vpmuludq %ymm6,%ymm6,%ymm0
    202d:	c5 fd 7f 74 24 20    	vmovdqa %ymm6,0x20(%rsp)
    2033:	c4 e2 75 40 0d 64 1a 	vpmulld 0x1a64(%rip),%ymm1,%ymm1        # 3aa0 <_ZN4poly7f_n_t_tL4iab4E+0xa40>
    203a:	00 00 
    203c:	c5 fd 70 d1 f5       	vpshufd $0xf5,%ymm1,%ymm2
    2041:	c4 c1 75 f4 cc       	vpmuludq %ymm12,%ymm1,%ymm1
    2046:	c5 7d 6f ee          	vmovdqa %ymm6,%ymm13
    204a:	c4 c1 6d f4 d4       	vpmuludq %ymm12,%ymm2,%ymm2
    204f:	c5 3d d4 c1          	vpaddq %ymm1,%ymm8,%ymm8
    2053:	c5 fd d4 c2          	vpaddq %ymm2,%ymm0,%ymm0
    2057:	c4 c1 3d 73 d0 20    	vpsrlq $0x20,%ymm8,%ymm8
    205d:	c4 63 3d 02 c0 aa    	vpblendd $0xaa,%ymm0,%ymm8,%ymm8
    2063:	c5 bd fe 05 b5 1a 00 	vpaddd 0x1ab5(%rip),%ymm8,%ymm0        # 3b20 <_ZN4poly7f_n_t_tL4iab4E+0xac0>
    206a:	00 
    206b:	c5 bd 72 e0 1f       	vpsrad $0x1f,%ymm0,%ymm8
    2070:	c4 41 3d db c4       	vpand  %ymm12,%ymm8,%ymm8
    2075:	c5 3d fe c0          	vpaddd %ymm0,%ymm8,%ymm8
    2079:	c4 c2 3d 40 c9       	vpmulld %ymm9,%ymm8,%ymm1
    207e:	c4 c1 7d 73 d0 20    	vpsrlq $0x20,%ymm8,%ymm0
    2084:	c5 fd 7f 84 24 a0 00 	vmovdqa %ymm0,0xa0(%rsp)
    208b:	00 00 
    208d:	c4 41 3d f4 d3       	vpmuludq %ymm11,%ymm8,%ymm10
    2092:	c5 fd f4 c6          	vpmuludq %ymm6,%ymm0,%ymm0
    2096:	c5 fd 70 d1 f5       	vpshufd $0xf5,%ymm1,%ymm2
    209b:	c4 c1 75 f4 cc       	vpmuludq %ymm12,%ymm1,%ymm1
    20a0:	c4 c1 6d f4 d4       	vpmuludq %ymm12,%ymm2,%ymm2
    20a5:	c5 2d d4 d1          	vpaddq %ymm1,%ymm10,%ymm10
    20a9:	c5 fd d4 c2          	vpaddq %ymm2,%ymm0,%ymm0
    20ad:	c4 c1 2d 73 d2 20    	vpsrlq $0x20,%ymm10,%ymm10
    20b3:	c4 63 2d 02 d0 aa    	vpblendd $0xaa,%ymm0,%ymm10,%ymm10
    20b9:	c5 ad fe 05 5f 1a 00 	vpaddd 0x1a5f(%rip),%ymm10,%ymm0        # 3b20 <_ZN4poly7f_n_t_tL4iab4E+0xac0>
    20c0:	00 
    20c1:	c5 ad 72 e0 1f       	vpsrad $0x1f,%ymm0,%ymm10
    20c6:	c4 41 2d db d4       	vpand  %ymm12,%ymm10,%ymm10
    20cb:	c5 2d fe d0          	vpaddd %ymm0,%ymm10,%ymm10
    20cf:	41 39 de             	cmp    %ebx,%r14d
    20d2:	0f 8d d7 01 00 00    	jge    22af <_ZN4poly7f_n_t_t8dit_funcEPv+0x36f>
    20d8:	c4 e2 3d 40 3d bf 19 	vpmulld 0x19bf(%rip),%ymm8,%ymm7        # 3aa0 <_ZN4poly7f_n_t_tL4iab4E+0xa40>
    20df:	00 00 
    20e1:	c5 fd 7f 7c 24 60    	vmovdqa %ymm7,0x60(%rsp)
    20e7:	c4 e2 2d 40 3d b0 19 	vpmulld 0x19b0(%rip),%ymm10,%ymm7        # 3aa0 <_ZN4poly7f_n_t_tL4iab4E+0xa40>
    20ee:	00 00 
    20f0:	49 8d 04 3a          	lea    (%r10,%rdi,1),%rax
    20f4:	c5 fd 7f bc 24 80 00 	vmovdqa %ymm7,0x80(%rsp)
    20fb:	00 00 
    20fd:	c4 c1 45 73 d2 20    	vpsrlq $0x20,%ymm10,%ymm7
    2103:	c5 fd 7f 7c 24 40    	vmovdqa %ymm7,0x40(%rsp)
    2109:	0f 1f 80 00 00 00 00 	nopl   0x0(%rax)
    2110:	c5 85 fe 1c 08       	vpaddd (%rax,%rcx,1),%ymm15,%ymm3
    2115:	c5 e5 fa 1c 10       	vpsubd (%rax,%rdx,1),%ymm3,%ymm3
    211a:	48 83 c0 20          	add    $0x20,%rax
    211e:	c4 e2 65 40 25 d9 1a 	vpmulld 0x1ad9(%rip),%ymm3,%ymm4        # 3c00 <_ZN4poly7f_n_t_tL4iab4E+0xba0>
    2125:	00 00 
    2127:	c5 fd 70 cc f5       	vpshufd $0xf5,%ymm4,%ymm1
    212c:	c4 c1 5d f4 e4       	vpmuludq %ymm12,%ymm4,%ymm4
    2131:	c5 fd 6f 78 e0       	vmovdqa -0x20(%rax),%ymm7
    2136:	c5 e5 f4 15 e2 1a 00 	vpmuludq 0x1ae2(%rip),%ymm3,%ymm2        # 3c20 <_ZN4poly7f_n_t_tL4iab4E+0xbc0>
    213d:	00 
    213e:	c4 c1 75 f4 cc       	vpmuludq %ymm12,%ymm1,%ymm1
    2143:	c5 fd 73 d3 20       	vpsrlq $0x20,%ymm3,%ymm0
    2148:	c5 fd f4 05 90 1a 00 	vpmuludq 0x1a90(%rip),%ymm0,%ymm0        # 3be0 <_ZN4poly7f_n_t_tL4iab4E+0xb80>
    214f:	00 
    2150:	c5 ed d4 d4          	vpaddq %ymm4,%ymm2,%ymm2
    2154:	c5 fd d4 c1          	vpaddq %ymm1,%ymm0,%ymm0
    2158:	c5 c5 fe 4c 30 e0    	vpaddd -0x20(%rax,%rsi,1),%ymm7,%ymm1
    215e:	c5 ed 73 d2 20       	vpsrlq $0x20,%ymm2,%ymm2
    2163:	c5 fd 6f 7c 08 e0    	vmovdqa -0x20(%rax,%rcx,1),%ymm7
    2169:	c4 e3 6d 02 d0 aa    	vpblendd $0xaa,%ymm0,%ymm2,%ymm2
    216f:	c5 c5 fe 64 10 e0    	vpaddd -0x20(%rax,%rdx,1),%ymm7,%ymm4
    2175:	c5 fd 6f 78 e0       	vmovdqa -0x20(%rax),%ymm7
    217a:	c4 c1 75 fe c6       	vpaddd %ymm14,%ymm1,%ymm0
    217f:	c5 c5 fa 5c 30 e0    	vpsubd -0x20(%rax,%rsi,1),%ymm7,%ymm3
    2185:	c5 f5 72 e0 1f       	vpsrad $0x1f,%ymm0,%ymm1
    218a:	c4 c1 75 db cf       	vpand  %ymm15,%ymm1,%ymm1
    218f:	c5 f5 fe c8          	vpaddd %ymm0,%ymm1,%ymm1
    2193:	c4 c1 5d fe c6       	vpaddd %ymm14,%ymm4,%ymm0
    2198:	c5 dd 72 e0 1f       	vpsrad $0x1f,%ymm0,%ymm4
    219d:	c4 c1 5d db e7       	vpand  %ymm15,%ymm4,%ymm4
    21a2:	c5 dd fe e0          	vpaddd %ymm0,%ymm4,%ymm4
    21a6:	c5 fd 72 e3 1f       	vpsrad $0x1f,%ymm3,%ymm0
    21ab:	c5 dd fe e9          	vpaddd %ymm1,%ymm4,%ymm5
    21af:	c4 c1 7d db c7       	vpand  %ymm15,%ymm0,%ymm0
    21b4:	c4 c1 75 fe cf       	vpaddd %ymm15,%ymm1,%ymm1
    21b9:	c4 c1 55 fe ee       	vpaddd %ymm14,%ymm5,%ymm5
    21be:	c5 fd fe c3          	vpaddd %ymm3,%ymm0,%ymm0
    21c2:	c5 e5 72 e5 1f       	vpsrad $0x1f,%ymm5,%ymm3
    21c7:	c5 f5 fa e4          	vpsubd %ymm4,%ymm1,%ymm4
    21cb:	c4 c1 65 db df       	vpand  %ymm15,%ymm3,%ymm3
    21d0:	c5 e5 fe dd          	vpaddd %ymm5,%ymm3,%ymm3
    21d4:	c5 fd 7f 58 e0       	vmovdqa %ymm3,-0x20(%rax)
    21d9:	c5 ed fe d8          	vpaddd %ymm0,%ymm2,%ymm3
    21dd:	c4 c1 7d fe c7       	vpaddd %ymm15,%ymm0,%ymm0
    21e2:	c4 c2 65 40 f1       	vpmulld %ymm9,%ymm3,%ymm6
    21e7:	c5 d5 73 d3 20       	vpsrlq $0x20,%ymm3,%ymm5
    21ec:	c5 fd fa d2          	vpsubd %ymm2,%ymm0,%ymm2
    21f0:	c4 c1 65 f4 db       	vpmuludq %ymm11,%ymm3,%ymm3
    21f5:	c4 c1 55 f4 ed       	vpmuludq %ymm13,%ymm5,%ymm5
    21fa:	c5 f5 73 d2 20       	vpsrlq $0x20,%ymm2,%ymm1
    21ff:	c5 f5 f4 4c 24 40    	vpmuludq 0x40(%rsp),%ymm1,%ymm1
    2205:	c5 fd 70 fe f5       	vpshufd $0xf5,%ymm6,%ymm7
    220a:	c4 c1 4d f4 f4       	vpmuludq %ymm12,%ymm6,%ymm6
    220f:	c4 c1 45 f4 fc       	vpmuludq %ymm12,%ymm7,%ymm7
    2214:	c5 e5 d4 f6          	vpaddq %ymm6,%ymm3,%ymm6
    2218:	c5 e5 73 d4 20       	vpsrlq $0x20,%ymm4,%ymm3
    221d:	c5 e5 f4 9c 24 a0 00 	vpmuludq 0xa0(%rsp),%ymm3,%ymm3
    2224:	00 00 
    2226:	c5 cd 73 d6 20       	vpsrlq $0x20,%ymm6,%ymm6
    222b:	c5 d5 d4 ef          	vpaddq %ymm7,%ymm5,%ymm5
    222f:	c4 e3 4d 02 ed aa    	vpblendd $0xaa,%ymm5,%ymm6,%ymm5
    2235:	c5 fd 7f 6c 30 e0    	vmovdqa %ymm5,-0x20(%rax,%rsi,1)
    223b:	c4 e2 5d 40 6c 24 60 	vpmulld 0x60(%rsp),%ymm4,%ymm5
    2242:	c4 c1 5d f4 e0       	vpmuludq %ymm8,%ymm4,%ymm4
    2247:	c5 fd 70 f5 f5       	vpshufd $0xf5,%ymm5,%ymm6
    224c:	c4 c1 55 f4 ec       	vpmuludq %ymm12,%ymm5,%ymm5
    2251:	c4 c1 4d f4 f4       	vpmuludq %ymm12,%ymm6,%ymm6
    2256:	c5 dd d4 e5          	vpaddq %ymm5,%ymm4,%ymm4
    225a:	c5 e5 d4 de          	vpaddq %ymm6,%ymm3,%ymm3
    225e:	c5 dd 73 d4 20       	vpsrlq $0x20,%ymm4,%ymm4
    2263:	c4 e3 5d 02 e3 aa    	vpblendd $0xaa,%ymm3,%ymm4,%ymm4
    2269:	c5 fd 7f 64 08 e0    	vmovdqa %ymm4,-0x20(%rax,%rcx,1)
    226f:	c4 e2 6d 40 a4 24 80 	vpmulld 0x80(%rsp),%ymm2,%ymm4
    2276:	00 00 00 
    2279:	c4 c1 6d f4 d2       	vpmuludq %ymm10,%ymm2,%ymm2
    227e:	c5 fd 70 dc f5       	vpshufd $0xf5,%ymm4,%ymm3
    2283:	c4 c1 5d f4 e4       	vpmuludq %ymm12,%ymm4,%ymm4
    2288:	c4 c1 65 f4 dc       	vpmuludq %ymm12,%ymm3,%ymm3
    228d:	c5 ed d4 d4          	vpaddq %ymm4,%ymm2,%ymm2
    2291:	c5 f5 d4 cb          	vpaddq %ymm3,%ymm1,%ymm1
    2295:	c5 ed 73 d2 20       	vpsrlq $0x20,%ymm2,%ymm2
    229a:	c4 e3 6d 02 d1 aa    	vpblendd $0xaa,%ymm1,%ymm2,%ymm2
    22a0:	c5 fd 7f 54 10 e0    	vmovdqa %ymm2,-0x20(%rax,%rdx,1)
    22a6:	48 39 c7             	cmp    %rax,%rdi
    22a9:	0f 85 61 fe ff ff    	jne    2110 <_ZN4poly7f_n_t_t8dit_funcEPv+0x1d0>
    22af:	31 c0                	xor    %eax,%eax
    22b1:	45 01 e0             	add    %r12d,%r8d
    22b4:	4c 01 df             	add    %r11,%rdi
    22b7:	f3 41 0f bc c1       	tzcnt  %r9d,%eax
    22bc:	41 ff c9             	dec    %r9d
    22bf:	48 98                	cltq   
    22c1:	48 c1 e0 05          	shl    $0x5,%rax
    22c5:	c4 a1 7d 6f 84 38 80 	vmovdqa 0x280(%rax,%r15,1),%ymm0
    22cc:	02 00 00 
    22cf:	c4 42 7d 40 c9       	vpmulld %ymm9,%ymm0,%ymm9
    22d4:	c5 25 f4 d8          	vpmuludq %ymm0,%ymm11,%ymm11
    22d8:	c5 f5 73 d0 20       	vpsrlq $0x20,%ymm0,%ymm1
    22dd:	c5 f5 f4 4c 24 20    	vpmuludq 0x20(%rsp),%ymm1,%ymm1
    22e3:	c4 c1 7d 70 d1 f5    	vpshufd $0xf5,%ymm9,%ymm2
    22e9:	c4 41 35 f4 cc       	vpmuludq %ymm12,%ymm9,%ymm9
    22ee:	c4 c1 6d f4 d4       	vpmuludq %ymm12,%ymm2,%ymm2
    22f3:	c4 41 25 d4 d9       	vpaddq %ymm9,%ymm11,%ymm11
    22f8:	c5 f5 d4 c2          	vpaddq %ymm2,%ymm1,%ymm0
    22fc:	c4 c1 25 73 d3 20    	vpsrlq $0x20,%ymm11,%ymm11
    2302:	c4 63 25 02 d8 aa    	vpblendd $0xaa,%ymm0,%ymm11,%ymm11
    2308:	c5 a5 fe 05 10 18 00 	vpaddd 0x1810(%rip),%ymm11,%ymm0        # 3b20 <_ZN4poly7f_n_t_tL4iab4E+0xac0>
    230f:	00 
    2310:	c5 a5 72 e0 1f       	vpsrad $0x1f,%ymm0,%ymm11
    2315:	c4 41 25 db dc       	vpand  %ymm12,%ymm11,%ymm11
    231a:	c5 25 fe d8          	vpaddd %ymm0,%ymm11,%ymm11
    231e:	45 39 c5             	cmp    %r8d,%r13d
    2321:	0f 8f e9 fc ff ff    	jg     2010 <_ZN4poly7f_n_t_t8dit_funcEPv+0xd0>
    2327:	48 8d 3d d2 12 31 00 	lea    0x3112d2(%rip),%rdi        # 313600 <_ZN4poly7f_n_t_t10barr_mergeE>
    232e:	c5 f8 77             	vzeroupper 
    2331:	e8 ea ee ff ff       	call   1220 <pthread_barrier_wait@plt>
    2336:	c1 e3 02             	shl    $0x2,%ebx
    2339:	c5 7d 6f 25 7f 17 00 	vmovdqa 0x177f(%rip),%ymm12        # 3ac0 <_ZN4poly7f_n_t_tL4iab4E+0xa60>
    2340:	00 
    2341:	c5 7d 6f 35 f7 17 00 	vmovdqa 0x17f7(%rip),%ymm14        # 3b40 <_ZN4poly7f_n_t_tL4iab4E+0xae0>
    2348:	00 
    2349:	c5 7d 6f 3d 0f 18 00 	vmovdqa 0x180f(%rip),%ymm15        # 3b60 <_ZN4poly7f_n_t_tL4iab4E+0xb00>
    2350:	00 
    2351:	41 c1 e4 02          	shl    $0x2,%r12d
    2355:	e9 56 fc ff ff       	jmp    1fb0 <_ZN4poly7f_n_t_t8dit_funcEPv+0x70>
    235a:	66 0f 1f 44 00 00    	nopw   0x0(%rax,%rax,1)

0000000000002360 <_ZStplIcSt11char_traitsIcESaIcEENSt7__cxx1112basic_stringIT_T0_T1_EEOS8_PKS5_>:
    2360:	f3 0f 1e fa          	endbr64 
    2364:	41 55                	push   %r13
    2366:	49 89 d5             	mov    %rdx,%r13
    2369:	41 54                	push   %r12
    236b:	49 89 fc             	mov    %rdi,%r12
    236e:	48 89 d7             	mov    %rdx,%rdi
    2371:	55                   	push   %rbp
    2372:	48 89 f5             	mov    %rsi,%rbp
    2375:	e8 16 ee ff ff       	call   1190 <strlen@plt>
    237a:	48 89 c2             	mov    %rax,%rdx
    237d:	48 b8 ff ff ff ff ff 	movabs $0x3fffffffffffffff,%rax
    2384:	ff ff 3f 
    2387:	48 2b 45 08          	sub    0x8(%rbp),%rax
    238b:	48 39 c2             	cmp    %rax,%rdx
    238e:	77 5e                	ja     23ee <_ZStplIcSt11char_traitsIcESaIcEENSt7__cxx1112basic_stringIT_T0_T1_EEOS8_PKS5_+0x8e>
    2390:	4c 89 ee             	mov    %r13,%rsi
    2393:	48 89 ef             	mov    %rbp,%rdi
    2396:	e8 e5 ed ff ff       	call   1180 <_ZNSt7__cxx1112basic_stringIcSt11char_traitsIcESaIcEE9_M_appendEPKcm@plt>
    239b:	49 8d 54 24 10       	lea    0x10(%r12),%rdx
    23a0:	49 89 14 24          	mov    %rdx,(%r12)
    23a4:	48 8b 08             	mov    (%rax),%rcx
    23a7:	48 8d 50 10          	lea    0x10(%rax),%rdx
    23ab:	48 39 d1             	cmp    %rdx,%rcx
    23ae:	74 30                	je     23e0 <_ZStplIcSt11char_traitsIcESaIcEENSt7__cxx1112basic_stringIT_T0_T1_EEOS8_PKS5_+0x80>
    23b0:	49 89 0c 24          	mov    %rcx,(%r12)
    23b4:	48 8b 48 10          	mov    0x10(%rax),%rcx
    23b8:	49 89 4c 24 10       	mov    %rcx,0x10(%r12)
    23bd:	48 8b 48 08          	mov    0x8(%rax),%rcx
    23c1:	48 89 10             	mov    %rdx,(%rax)
    23c4:	48 c7 40 08 00 00 00 	movq   $0x0,0x8(%rax)
    23cb:	00 
    23cc:	49 89 4c 24 08       	mov    %rcx,0x8(%r12)
    23d1:	c6 40 10 00          	movb   $0x0,0x10(%rax)
    23d5:	4c 89 e0             	mov    %r12,%rax
    23d8:	5d                   	pop    %rbp
    23d9:	41 5c                	pop    %r12
    23db:	41 5d                	pop    %r13
    23dd:	c3                   	ret    
    23de:	66 90                	xchg   %ax,%ax
    23e0:	c5 fa 6f 40 10       	vmovdqu 0x10(%rax),%xmm0
    23e5:	c4 c1 78 11 44 24 10 	vmovups %xmm0,0x10(%r12)
    23ec:	eb cf                	jmp    23bd <_ZStplIcSt11char_traitsIcESaIcEENSt7__cxx1112basic_stringIT_T0_T1_EEOS8_PKS5_+0x5d>
    23ee:	48 8d 3d 24 0c 00 00 	lea    0xc24(%rip),%rdi        # 3019 <_IO_stdin_used+0x19>
    23f5:	e8 a6 ed ff ff       	call   11a0 <_ZSt20__throw_length_errorPKc@plt>
    23fa:	66 0f 1f 44 00 00    	nopw   0x0(%rax,%rax,1)

0000000000002400 <_ZN4poly7f_n_t_t11dif_base4x8ILb0ELi1EEEvPji>:
    2400:	f3 0f 1e fa          	endbr64 
    2404:	55                   	push   %rbp
    2405:	48 89 e5             	mov    %rsp,%rbp
    2408:	41 55                	push   %r13
    240a:	49 89 fd             	mov    %rdi,%r13
    240d:	41 54                	push   %r12
    240f:	41 89 f4             	mov    %esi,%r12d
    2412:	53                   	push   %rbx
    2413:	89 f3                	mov    %esi,%ebx
    2415:	c1 fb 04             	sar    $0x4,%ebx
    2418:	48 83 e4 e0          	and    $0xffffffffffffffe0,%rsp
    241c:	48 83 ec 20          	sub    $0x20,%rsp
    2420:	64 48 8b 04 25 28 00 	mov    %fs:0x28,%rax
    2427:	00 00 
    2429:	48 89 44 24 18       	mov    %rax,0x18(%rsp)
    242e:	31 c0                	xor    %eax,%eax
    2430:	89 f0                	mov    %esi,%eax
    2432:	c1 f8 03             	sar    $0x3,%eax
    2435:	f3 0f bc c0          	tzcnt  %eax,%eax
    2439:	a8 01                	test   $0x1,%al
    243b:	74 55                	je     2492 <_ZN4poly7f_n_t_t11dif_base4x8ILb0ELi1EEEvPji+0x92>
    243d:	85 db                	test   %ebx,%ebx
    243f:	7e 4b                	jle    248c <_ZN4poly7f_n_t_t11dif_base4x8ILb0ELi1EEEvPji+0x8c>
    2441:	8d 53 ff             	lea    -0x1(%rbx),%edx
    2444:	c5 fd 6f 1d 14 17 00 	vmovdqa 0x1714(%rip),%ymm3        # 3b60 <_ZN4poly7f_n_t_tL4iab4E+0xb00>
    244b:	00 
    244c:	48 89 f8             	mov    %rdi,%rax
    244f:	48 c1 e2 05          	shl    $0x5,%rdx
    2453:	48 8d 4c 17 20       	lea    0x20(%rdi,%rdx,1),%rcx
    2458:	48 63 d3             	movslq %ebx,%rdx
    245b:	48 c1 e2 05          	shl    $0x5,%rdx
    245f:	90                   	nop
    2460:	c5 fd 6f 00          	vmovdqa (%rax),%ymm0
    2464:	c5 fd 6f 0c 10       	vmovdqa (%rax,%rdx,1),%ymm1
    2469:	48 83 c0 20          	add    $0x20,%rax
    246d:	c5 fd fe d1          	vpaddd %ymm1,%ymm0,%ymm2
    2471:	c5 fd fe c3          	vpaddd %ymm3,%ymm0,%ymm0
    2475:	c5 fd fa c1          	vpsubd %ymm1,%ymm0,%ymm0
    2479:	c5 fd 7f 50 e0       	vmovdqa %ymm2,-0x20(%rax)
    247e:	c5 fd 7f 44 10 e0    	vmovdqa %ymm0,-0x20(%rax,%rdx,1)
    2484:	48 39 c8             	cmp    %rcx,%rax
    2487:	75 d7                	jne    2460 <_ZN4poly7f_n_t_t11dif_base4x8ILb0ELi1EEEvPji+0x60>
    2489:	c5 f8 77             	vzeroupper 
    248c:	44 89 e3             	mov    %r12d,%ebx
    248f:	c1 fb 05             	sar    $0x5,%ebx
    2492:	48 8d 3d 67 11 31 00 	lea    0x311167(%rip),%rdi        # 313600 <_ZN4poly7f_n_t_t10barr_mergeE>
    2499:	ba 01 00 00 00       	mov    $0x1,%edx
    249e:	31 f6                	xor    %esi,%esi
    24a0:	d1 fb                	sar    %ebx
    24a2:	e8 99 ed ff ff       	call   1240 <pthread_barrier_init@plt>
    24a7:	48 89 e7             	mov    %rsp,%rdi
    24aa:	4c 89 6c 24 08       	mov    %r13,0x8(%rsp)
    24af:	c7 04 24 00 00 00 00 	movl   $0x0,(%rsp)
    24b6:	44 89 64 24 10       	mov    %r12d,0x10(%rsp)
    24bb:	89 5c 24 14          	mov    %ebx,0x14(%rsp)
    24bf:	e8 3c f6 ff ff       	call   1b00 <_ZN4poly7f_n_t_t8dif_funcEPv>
    24c4:	66 2e 0f 1f 84 00 00 	cs nopw 0x0(%rax,%rax,1)
    24cb:	00 00 00 
    24ce:	66 90                	xchg   %ax,%ax

00000000000024d0 <_ZNSt7__cxx1112basic_stringIcSt11char_traitsIcESaIcEE12_M_constructIPcEEvT_S7_St20forward_iterator_tag>:
    24d0:	f3 0f 1e fa          	endbr64 
    24d4:	41 54                	push   %r12
    24d6:	49 89 d4             	mov    %rdx,%r12
    24d9:	55                   	push   %rbp
    24da:	48 89 f5             	mov    %rsi,%rbp
    24dd:	53                   	push   %rbx
    24de:	48 89 fb             	mov    %rdi,%rbx
    24e1:	48 83 ec 10          	sub    $0x10,%rsp
    24e5:	64 48 8b 04 25 28 00 	mov    %fs:0x28,%rax
    24ec:	00 00 
    24ee:	48 89 44 24 08       	mov    %rax,0x8(%rsp)
    24f3:	31 c0                	xor    %eax,%eax
    24f5:	48 85 d2             	test   %rdx,%rdx
    24f8:	74 09                	je     2503 <_ZNSt7__cxx1112basic_stringIcSt11char_traitsIcESaIcEE12_M_constructIPcEEvT_S7_St20forward_iterator_tag+0x33>
    24fa:	48 85 f6             	test   %rsi,%rsi
    24fd:	0f 84 8c 00 00 00    	je     258f <_ZNSt7__cxx1112basic_stringIcSt11char_traitsIcESaIcEE12_M_constructIPcEEvT_S7_St20forward_iterator_tag+0xbf>
    2503:	49 29 ec             	sub    %rbp,%r12
    2506:	4c 89 24 24          	mov    %r12,(%rsp)
    250a:	49 83 fc 0f          	cmp    $0xf,%r12
    250e:	77 50                	ja     2560 <_ZNSt7__cxx1112basic_stringIcSt11char_traitsIcESaIcEE12_M_constructIPcEEvT_S7_St20forward_iterator_tag+0x90>
    2510:	48 8b 3b             	mov    (%rbx),%rdi
    2513:	49 83 fc 01          	cmp    $0x1,%r12
    2517:	75 37                	jne    2550 <_ZNSt7__cxx1112basic_stringIcSt11char_traitsIcESaIcEE12_M_constructIPcEEvT_S7_St20forward_iterator_tag+0x80>
    2519:	0f b6 45 00          	movzbl 0x0(%rbp),%eax
    251d:	88 07                	mov    %al,(%rdi)
    251f:	4c 8b 24 24          	mov    (%rsp),%r12
    2523:	48 8b 3b             	mov    (%rbx),%rdi
    2526:	4c 89 63 08          	mov    %r12,0x8(%rbx)
    252a:	42 c6 04 27 00       	movb   $0x0,(%rdi,%r12,1)
    252f:	48 8b 44 24 08       	mov    0x8(%rsp),%rax
    2534:	64 48 33 04 25 28 00 	xor    %fs:0x28,%rax
    253b:	00 00 
    253d:	75 5c                	jne    259b <_ZNSt7__cxx1112basic_stringIcSt11char_traitsIcESaIcEE12_M_constructIPcEEvT_S7_St20forward_iterator_tag+0xcb>
    253f:	48 83 c4 10          	add    $0x10,%rsp
    2543:	5b                   	pop    %rbx
    2544:	5d                   	pop    %rbp
    2545:	41 5c                	pop    %r12
    2547:	c3                   	ret    
    2548:	0f 1f 84 00 00 00 00 	nopl   0x0(%rax,%rax,1)
    254f:	00 
    2550:	4d 85 e4             	test   %r12,%r12
    2553:	74 d1                	je     2526 <_ZNSt7__cxx1112basic_stringIcSt11char_traitsIcESaIcEE12_M_constructIPcEEvT_S7_St20forward_iterator_tag+0x56>
    2555:	eb 24                	jmp    257b <_ZNSt7__cxx1112basic_stringIcSt11char_traitsIcESaIcEE12_M_constructIPcEEvT_S7_St20forward_iterator_tag+0xab>
    2557:	66 0f 1f 84 00 00 00 	nopw   0x0(%rax,%rax,1)
    255e:	00 00 
    2560:	48 89 df             	mov    %rbx,%rdi
    2563:	48 89 e6             	mov    %rsp,%rsi
    2566:	31 d2                	xor    %edx,%edx
    2568:	e8 03 ed ff ff       	call   1270 <_ZNSt7__cxx1112basic_stringIcSt11char_traitsIcESaIcEE9_M_createERmm@plt>
    256d:	48 89 03             	mov    %rax,(%rbx)
    2570:	48 89 c7             	mov    %rax,%rdi
    2573:	48 8b 04 24          	mov    (%rsp),%rax
    2577:	48 89 43 10          	mov    %rax,0x10(%rbx)
    257b:	4c 89 e2             	mov    %r12,%rdx
    257e:	48 89 ee             	mov    %rbp,%rsi
    2581:	e8 4a ec ff ff       	call   11d0 <memcpy@plt>
    2586:	4c 8b 24 24          	mov    (%rsp),%r12
    258a:	48 8b 3b             	mov    (%rbx),%rdi
    258d:	eb 97                	jmp    2526 <_ZNSt7__cxx1112basic_stringIcSt11char_traitsIcESaIcEE12_M_constructIPcEEvT_S7_St20forward_iterator_tag+0x56>
    258f:	48 8d 3d 9a 0a 00 00 	lea    0xa9a(%rip),%rdi        # 3030 <_IO_stdin_used+0x30>
    2596:	e8 25 ec ff ff       	call   11c0 <_ZSt19__throw_logic_errorPKc@plt>
    259b:	e8 70 ec ff ff       	call   1210 <__stack_chk_fail@plt>

00000000000025a0 <_ZN9__gnu_cxx12__to_xstringINSt7__cxx1112basic_stringIcSt11char_traitsIcESaIcEEEcEET_PFiPT0_mPKS8_P13__va_list_tagEmSB_z>:
    25a0:	f3 0f 1e fa          	endbr64 
    25a4:	55                   	push   %rbp
    25a5:	49 89 f2             	mov    %rsi,%r10
    25a8:	48 89 d6             	mov    %rdx,%rsi
    25ab:	48 89 ca             	mov    %rcx,%rdx
    25ae:	48 89 e5             	mov    %rsp,%rbp
    25b1:	41 55                	push   %r13
    25b3:	41 54                	push   %r12
    25b5:	49 89 fc             	mov    %rdi,%r12
    25b8:	48 81 ec d0 00 00 00 	sub    $0xd0,%rsp
    25bf:	4c 89 85 60 ff ff ff 	mov    %r8,-0xa0(%rbp)
    25c6:	4c 89 8d 68 ff ff ff 	mov    %r9,-0x98(%rbp)
    25cd:	84 c0                	test   %al,%al
    25cf:	74 2b                	je     25fc <_ZN9__gnu_cxx12__to_xstringINSt7__cxx1112basic_stringIcSt11char_traitsIcESaIcEEEcEET_PFiPT0_mPKS8_P13__va_list_tagEmSB_z+0x5c>
    25d1:	c5 f8 29 85 70 ff ff 	vmovaps %xmm0,-0x90(%rbp)
    25d8:	ff 
    25d9:	c5 f8 29 4d 80       	vmovaps %xmm1,-0x80(%rbp)
    25de:	c5 f8 29 55 90       	vmovaps %xmm2,-0x70(%rbp)
    25e3:	c5 f8 29 5d a0       	vmovaps %xmm3,-0x60(%rbp)
    25e8:	c5 f8 29 65 b0       	vmovaps %xmm4,-0x50(%rbp)
    25ed:	c5 f8 29 6d c0       	vmovaps %xmm5,-0x40(%rbp)
    25f2:	c5 f8 29 75 d0       	vmovaps %xmm6,-0x30(%rbp)
    25f7:	c5 f8 29 7d e0       	vmovaps %xmm7,-0x20(%rbp)
    25fc:	64 48 8b 04 25 28 00 	mov    %fs:0x28,%rax
    2603:	00 00 
    2605:	48 89 85 38 ff ff ff 	mov    %rax,-0xc8(%rbp)
    260c:	31 c0                	xor    %eax,%eax
    260e:	48 8d 46 27          	lea    0x27(%rsi),%rax
    2612:	48 89 e7             	mov    %rsp,%rdi
    2615:	48 89 c1             	mov    %rax,%rcx
    2618:	48 25 00 f0 ff ff    	and    $0xfffffffffffff000,%rax
    261e:	48 29 c7             	sub    %rax,%rdi
    2621:	48 83 e1 f0          	and    $0xfffffffffffffff0,%rcx
    2625:	48 89 f8             	mov    %rdi,%rax
    2628:	48 39 c4             	cmp    %rax,%rsp
    262b:	74 15                	je     2642 <_ZN9__gnu_cxx12__to_xstringINSt7__cxx1112basic_stringIcSt11char_traitsIcESaIcEEEcEET_PFiPT0_mPKS8_P13__va_list_tagEmSB_z+0xa2>
    262d:	48 81 ec 00 10 00 00 	sub    $0x1000,%rsp
    2634:	48 83 8c 24 f8 0f 00 	orq    $0x0,0xff8(%rsp)
    263b:	00 00 
    263d:	48 39 c4             	cmp    %rax,%rsp
    2640:	75 eb                	jne    262d <_ZN9__gnu_cxx12__to_xstringINSt7__cxx1112basic_stringIcSt11char_traitsIcESaIcEEEcEET_PFiPT0_mPKS8_P13__va_list_tagEmSB_z+0x8d>
    2642:	81 e1 ff 0f 00 00    	and    $0xfff,%ecx
    2648:	48 29 cc             	sub    %rcx,%rsp
    264b:	48 85 c9             	test   %rcx,%rcx
    264e:	0f 85 7c 00 00 00    	jne    26d0 <_ZN9__gnu_cxx12__to_xstringINSt7__cxx1112basic_stringIcSt11char_traitsIcESaIcEEEcEET_PFiPT0_mPKS8_P13__va_list_tagEmSB_z+0x130>
    2654:	48 8d 45 10          	lea    0x10(%rbp),%rax
    2658:	4c 8d 6c 24 1f       	lea    0x1f(%rsp),%r13
    265d:	c7 85 20 ff ff ff 20 	movl   $0x20,-0xe0(%rbp)
    2664:	00 00 00 
    2667:	49 83 e5 e0          	and    $0xffffffffffffffe0,%r13
    266b:	48 89 85 28 ff ff ff 	mov    %rax,-0xd8(%rbp)
    2672:	48 8d 85 40 ff ff ff 	lea    -0xc0(%rbp),%rax
    2679:	48 8d 8d 20 ff ff ff 	lea    -0xe0(%rbp),%rcx
    2680:	4c 89 ef             	mov    %r13,%rdi
    2683:	48 89 85 30 ff ff ff 	mov    %rax,-0xd0(%rbp)
    268a:	c7 85 24 ff ff ff 30 	movl   $0x30,-0xdc(%rbp)
    2691:	00 00 00 
    2694:	41 ff d2             	call   *%r10
    2697:	49 8d 54 24 10       	lea    0x10(%r12),%rdx
    269c:	4c 89 ee             	mov    %r13,%rsi
    269f:	4c 89 e7             	mov    %r12,%rdi
    26a2:	49 89 14 24          	mov    %rdx,(%r12)
    26a6:	48 63 d0             	movslq %eax,%rdx
    26a9:	4c 01 ea             	add    %r13,%rdx
    26ac:	e8 1f fe ff ff       	call   24d0 <_ZNSt7__cxx1112basic_stringIcSt11char_traitsIcESaIcEE12_M_constructIPcEEvT_S7_St20forward_iterator_tag>
    26b1:	48 8b 85 38 ff ff ff 	mov    -0xc8(%rbp),%rax
    26b8:	64 48 33 04 25 28 00 	xor    %fs:0x28,%rax
    26bf:	00 00 
    26c1:	75 18                	jne    26db <_ZN9__gnu_cxx12__to_xstringINSt7__cxx1112basic_stringIcSt11char_traitsIcESaIcEEEcEET_PFiPT0_mPKS8_P13__va_list_tagEmSB_z+0x13b>
    26c3:	48 8d 65 f0          	lea    -0x10(%rbp),%rsp
    26c7:	4c 89 e0             	mov    %r12,%rax
    26ca:	41 5c                	pop    %r12
    26cc:	41 5d                	pop    %r13
    26ce:	5d                   	pop    %rbp
    26cf:	c3                   	ret    
    26d0:	48 83 4c 0c f8 00    	orq    $0x0,-0x8(%rsp,%rcx,1)
    26d6:	e9 79 ff ff ff       	jmp    2654 <_ZN9__gnu_cxx12__to_xstringINSt7__cxx1112basic_stringIcSt11char_traitsIcESaIcEEEcEET_PFiPT0_mPKS8_P13__va_list_tagEmSB_z+0xb4>
    26db:	e8 30 eb ff ff       	call   1210 <__stack_chk_fail@plt>

Disassembly of section .fini:

00000000000026e0 <_fini>:
    26e0:	f3 0f 1e fa          	endbr64 
    26e4:	48 83 ec 08          	sub    $0x8,%rsp
    26e8:	48 83 c4 08          	add    $0x8,%rsp
    26ec:	c3                   	ret    
